
tc_new.elf:     file format elf32-avr

Sections:
Idx Name          Size      VMA       LMA       File off  Algn
  0 .text         000019d0  00000000  00000000  000000b4  2**1
                  CONTENTS, ALLOC, LOAD, READONLY, CODE
  1 .data         00000040  00800060  000019d0  00001a84  2**0
                  CONTENTS, ALLOC, LOAD, DATA
  2 .bss          0000006b  008000a0  008000a0  00001ac4  2**0
                  ALLOC
  3 .eeprom       00000040  00810000  00810000  00001ac4  2**0
                  CONTENTS, ALLOC, LOAD, DATA
  4 .stab         000027a8  00000000  00000000  00001b04  2**2
                  CONTENTS, READONLY, DEBUGGING
  5 .stabstr      00000b3a  00000000  00000000  000042ac  2**0
                  CONTENTS, READONLY, DEBUGGING

Disassembly of section .text:

00000000 <__vectors>:
       0:	0c 94 2a 00 	jmp	0x54	; 0x54 <__ctors_end>
       4:	0c 94 47 00 	jmp	0x8e	; 0x8e <__bad_interrupt>
       8:	0c 94 f4 06 	jmp	0xde8	; 0xde8 <__vector_2>
       c:	0c 94 47 00 	jmp	0x8e	; 0x8e <__bad_interrupt>
      10:	0c 94 24 03 	jmp	0x648	; 0x648 <__vector_4>
      14:	0c 94 47 00 	jmp	0x8e	; 0x8e <__bad_interrupt>
      18:	0c 94 47 00 	jmp	0x8e	; 0x8e <__bad_interrupt>
      1c:	0c 94 47 00 	jmp	0x8e	; 0x8e <__bad_interrupt>
      20:	0c 94 98 02 	jmp	0x530	; 0x530 <__vector_8>
      24:	0c 94 11 07 	jmp	0xe22	; 0xe22 <__vector_9>
      28:	0c 94 47 00 	jmp	0x8e	; 0x8e <__bad_interrupt>
      2c:	0c 94 47 00 	jmp	0x8e	; 0x8e <__bad_interrupt>
      30:	0c 94 47 00 	jmp	0x8e	; 0x8e <__bad_interrupt>
      34:	0c 94 47 00 	jmp	0x8e	; 0x8e <__bad_interrupt>
      38:	0c 94 47 00 	jmp	0x8e	; 0x8e <__bad_interrupt>
      3c:	0c 94 47 00 	jmp	0x8e	; 0x8e <__bad_interrupt>
      40:	0c 94 47 00 	jmp	0x8e	; 0x8e <__bad_interrupt>
      44:	0c 94 47 00 	jmp	0x8e	; 0x8e <__bad_interrupt>
      48:	0c 94 47 00 	jmp	0x8e	; 0x8e <__bad_interrupt>
      4c:	0c 94 47 00 	jmp	0x8e	; 0x8e <__bad_interrupt>
      50:	0c 94 47 00 	jmp	0x8e	; 0x8e <__bad_interrupt>

00000054 <__ctors_end>:
      54:	11 24       	eor	r1, r1
      56:	1f be       	out	0x3f, r1	; 63
      58:	cf e5       	ldi	r28, 0x5F	; 95
      5a:	d4 e0       	ldi	r29, 0x04	; 4
      5c:	de bf       	out	0x3e, r29	; 62
      5e:	cd bf       	out	0x3d, r28	; 61

00000060 <__do_copy_data>:
      60:	10 e0       	ldi	r17, 0x00	; 0
      62:	a0 e6       	ldi	r26, 0x60	; 96
      64:	b0 e0       	ldi	r27, 0x00	; 0
      66:	e0 ed       	ldi	r30, 0xD0	; 208
      68:	f9 e1       	ldi	r31, 0x19	; 25
      6a:	02 c0       	rjmp	.+4      	; 0x70 <__do_copy_data+0x10>
      6c:	05 90       	lpm	r0, Z+
      6e:	0d 92       	st	X+, r0
      70:	a0 3a       	cpi	r26, 0xA0	; 160
      72:	b1 07       	cpc	r27, r17
      74:	d9 f7       	brne	.-10     	; 0x6c <__do_copy_data+0xc>

00000076 <__do_clear_bss>:
      76:	11 e0       	ldi	r17, 0x01	; 1
      78:	a0 ea       	ldi	r26, 0xA0	; 160
      7a:	b0 e0       	ldi	r27, 0x00	; 0
      7c:	01 c0       	rjmp	.+2      	; 0x80 <.do_clear_bss_start>

0000007e <.do_clear_bss_loop>:
      7e:	1d 92       	st	X+, r1

00000080 <.do_clear_bss_start>:
      80:	ab 30       	cpi	r26, 0x0B	; 11
      82:	b1 07       	cpc	r27, r17
      84:	e1 f7       	brne	.-8      	; 0x7e <.do_clear_bss_loop>
      86:	0e 94 e1 09 	call	0x13c2	; 0x13c2 <main>
      8a:	0c 94 e6 0c 	jmp	0x19cc	; 0x19cc <_exit>

0000008e <__bad_interrupt>:
      8e:	0c 94 00 00 	jmp	0	; 0x0 <__vectors>

00000092 <change_temp_order>:
      92:	ef 92       	push	r14
      94:	ff 92       	push	r15
      96:	0f 93       	push	r16
      98:	1f 93       	push	r17
      9a:	90 e0       	ldi	r25, 0x00	; 0
      9c:	dc 01       	movw	r26, r24
      9e:	aa 0f       	add	r26, r26
      a0:	bb 1f       	adc	r27, r27
      a2:	aa 0f       	add	r26, r26
      a4:	bb 1f       	adc	r27, r27
      a6:	ae 57       	subi	r26, 0x7E	; 126
      a8:	bf 4f       	sbci	r27, 0xFF	; 255
      aa:	ed 90       	ld	r14, X+
      ac:	fd 90       	ld	r15, X+
      ae:	0d 91       	ld	r16, X+
      b0:	1c 91       	ld	r17, X
      b2:	13 97       	sbiw	r26, 0x03	; 3
      b4:	70 e0       	ldi	r23, 0x00	; 0
      b6:	fb 01       	movw	r30, r22
      b8:	ee 0f       	add	r30, r30
      ba:	ff 1f       	adc	r31, r31
      bc:	ee 0f       	add	r30, r30
      be:	ff 1f       	adc	r31, r31
      c0:	ee 57       	subi	r30, 0x7E	; 126
      c2:	ff 4f       	sbci	r31, 0xFF	; 255
      c4:	20 81       	ld	r18, Z
      c6:	31 81       	ldd	r19, Z+1	; 0x01
      c8:	42 81       	ldd	r20, Z+2	; 0x02
      ca:	53 81       	ldd	r21, Z+3	; 0x03
      cc:	2d 93       	st	X+, r18
      ce:	3d 93       	st	X+, r19
      d0:	4d 93       	st	X+, r20
      d2:	5c 93       	st	X, r21
      d4:	13 97       	sbiw	r26, 0x03	; 3
      d6:	e0 82       	st	Z, r14
      d8:	f1 82       	std	Z+1, r15	; 0x01
      da:	02 83       	std	Z+2, r16	; 0x02
      dc:	13 83       	std	Z+3, r17	; 0x03
      de:	fc 01       	movw	r30, r24
      e0:	93 e0       	ldi	r25, 0x03	; 3
      e2:	ee 0f       	add	r30, r30
      e4:	ff 1f       	adc	r31, r31
      e6:	9a 95       	dec	r25
      e8:	e1 f7       	brne	.-8      	; 0xe2 <change_temp_order+0x50>
      ea:	e4 54       	subi	r30, 0x44	; 68
      ec:	ff 4f       	sbci	r31, 0xFF	; 255
      ee:	83 e0       	ldi	r24, 0x03	; 3
      f0:	66 0f       	add	r22, r22
      f2:	77 1f       	adc	r23, r23
      f4:	8a 95       	dec	r24
      f6:	e1 f7       	brne	.-8      	; 0xf0 <change_temp_order+0x5e>
      f8:	db 01       	movw	r26, r22
      fa:	a4 54       	subi	r26, 0x44	; 68
      fc:	bf 4f       	sbci	r27, 0xFF	; 255
      fe:	6c 53       	subi	r22, 0x3C	; 60
     100:	7f 4f       	sbci	r23, 0xFF	; 255
     102:	80 81       	ld	r24, Z
     104:	9c 91       	ld	r25, X
     106:	91 93       	st	Z+, r25
     108:	8d 93       	st	X+, r24
     10a:	a6 17       	cp	r26, r22
     10c:	b7 07       	cpc	r27, r23
     10e:	c9 f7       	brne	.-14     	; 0x102 <change_temp_order+0x70>
     110:	1f 91       	pop	r17
     112:	0f 91       	pop	r16
     114:	ff 90       	pop	r15
     116:	ef 90       	pop	r14
     118:	08 95       	ret

0000011a <sel_query_sel>:
     11a:	1f 93       	push	r17
     11c:	cf 93       	push	r28
     11e:	df 93       	push	r29
     120:	18 2f       	mov	r17, r24
     122:	80 93 b6 00 	sts	0x00B6, r24
     126:	c0 e0       	ldi	r28, 0x00	; 0
     128:	d0 e0       	ldi	r29, 0x00	; 0
     12a:	ce 01       	movw	r24, r28
     12c:	1c 17       	cp	r17, r28
     12e:	21 f0       	breq	.+8      	; 0x138 <sel_query_sel+0x1e>
     130:	60 e0       	ldi	r22, 0x00	; 0
     132:	70 e0       	ldi	r23, 0x00	; 0
     134:	0e 94 3e 01 	call	0x27c	; 0x27c <setReleValue>
     138:	21 96       	adiw	r28, 0x01	; 1
     13a:	c6 30       	cpi	r28, 0x06	; 6
     13c:	d1 05       	cpc	r29, r1
     13e:	a9 f7       	brne	.-22     	; 0x12a <sel_query_sel+0x10>
     140:	81 2f       	mov	r24, r17
     142:	90 e0       	ldi	r25, 0x00	; 0
     144:	61 e0       	ldi	r22, 0x01	; 1
     146:	70 e0       	ldi	r23, 0x00	; 0
     148:	0e 94 3e 01 	call	0x27c	; 0x27c <setReleValue>
     14c:	10 92 b7 00 	sts	0x00B7, r1
     150:	0e 94 ae 00 	call	0x15c	; 0x15c <redraw_query_led>
     154:	df 91       	pop	r29
     156:	cf 91       	pop	r28
     158:	1f 91       	pop	r17
     15a:	08 95       	ret

0000015c <redraw_query_led>:
     15c:	1f 93       	push	r17
     15e:	cf 93       	push	r28
     160:	df 93       	push	r29
     162:	80 91 b6 00 	lds	r24, 0x00B6
     166:	90 e0       	ldi	r25, 0x00	; 0
     168:	fc 01       	movw	r30, r24
     16a:	ee 0f       	add	r30, r30
     16c:	ff 1f       	adc	r31, r31
     16e:	e8 0f       	add	r30, r24
     170:	f9 1f       	adc	r31, r25
     172:	ee 0f       	add	r30, r30
     174:	ff 1f       	adc	r31, r31
     176:	ed 50       	subi	r30, 0x0D	; 13
     178:	ff 4f       	sbci	r31, 0xFF	; 255
     17a:	90 81       	ld	r25, Z
     17c:	e9 2f       	mov	r30, r25
     17e:	ee 0f       	add	r30, r30
     180:	e9 0f       	add	r30, r25
     182:	80 91 b7 00 	lds	r24, 0x00B7
     186:	88 23       	and	r24, r24
     188:	19 f0       	breq	.+6      	; 0x190 <redraw_query_led+0x34>
     18a:	81 30       	cpi	r24, 0x01	; 1
     18c:	89 f4       	brne	.+34     	; 0x1b0 <redraw_query_led+0x54>
     18e:	07 c0       	rjmp	.+14     	; 0x19e <redraw_query_led+0x42>
     190:	8f ef       	ldi	r24, 0xFF	; 255
     192:	80 93 60 00 	sts	0x0060, r24
     196:	81 e0       	ldi	r24, 0x01	; 1
     198:	80 93 a5 00 	sts	0x00A5, r24
     19c:	1e c0       	rjmp	.+60     	; 0x1da <redraw_query_led+0x7e>
     19e:	10 92 a5 00 	sts	0x00A5, r1
     1a2:	90 93 60 00 	sts	0x0060, r25
     1a6:	95 30       	cpi	r25, 0x05	; 5
     1a8:	c0 f0       	brcs	.+48     	; 0x1da <redraw_query_led+0x7e>
     1aa:	10 92 60 00 	sts	0x0060, r1
     1ae:	15 c0       	rjmp	.+42     	; 0x1da <redraw_query_led+0x7e>
     1b0:	9f ef       	ldi	r25, 0xFF	; 255
     1b2:	90 93 60 00 	sts	0x0060, r25
     1b6:	10 92 a5 00 	sts	0x00A5, r1
     1ba:	82 30       	cpi	r24, 0x02	; 2
     1bc:	19 f0       	breq	.+6      	; 0x1c4 <redraw_query_led+0x68>
     1be:	83 30       	cpi	r24, 0x03	; 3
     1c0:	61 f4       	brne	.+24     	; 0x1da <redraw_query_led+0x7e>
     1c2:	05 c0       	rjmp	.+10     	; 0x1ce <redraw_query_led+0x72>
     1c4:	e0 93 61 00 	sts	0x0061, r30
     1c8:	90 93 62 00 	sts	0x0062, r25
     1cc:	0b c0       	rjmp	.+22     	; 0x1e4 <redraw_query_led+0x88>
     1ce:	8e 2f       	mov	r24, r30
     1d0:	8f 5f       	subi	r24, 0xFF	; 255
     1d2:	80 93 61 00 	sts	0x0061, r24
     1d6:	8f 5f       	subi	r24, 0xFF	; 255
     1d8:	03 c0       	rjmp	.+6      	; 0x1e0 <redraw_query_led+0x84>
     1da:	8f ef       	ldi	r24, 0xFF	; 255
     1dc:	80 93 61 00 	sts	0x0061, r24
     1e0:	80 93 62 00 	sts	0x0062, r24
     1e4:	f0 e0       	ldi	r31, 0x00	; 0
     1e6:	40 91 b6 00 	lds	r20, 0x00B6
     1ea:	24 2f       	mov	r18, r20
     1ec:	30 e0       	ldi	r19, 0x00	; 0
     1ee:	ef 01       	movw	r28, r30
     1f0:	cc 51       	subi	r28, 0x1C	; 28
     1f2:	df 4f       	sbci	r29, 0xFF	; 255
     1f4:	d9 01       	movw	r26, r18
     1f6:	aa 0f       	add	r26, r26
     1f8:	bb 1f       	adc	r27, r27
     1fa:	a2 0f       	add	r26, r18
     1fc:	b3 1f       	adc	r27, r19
     1fe:	aa 0f       	add	r26, r26
     200:	bb 1f       	adc	r27, r27
     202:	ad 50       	subi	r26, 0x0D	; 13
     204:	bf 4f       	sbci	r27, 0xFF	; 255
     206:	11 96       	adiw	r26, 0x01	; 1
     208:	8c 91       	ld	r24, X
     20a:	11 97       	sbiw	r26, 0x01	; 1
     20c:	8f 5e       	subi	r24, 0xEF	; 239
     20e:	88 83       	st	Y, r24
     210:	12 96       	adiw	r26, 0x02	; 2
     212:	1c 91       	ld	r17, X
     214:	81 2f       	mov	r24, r17
     216:	90 e0       	ldi	r25, 0x00	; 0
     218:	6a e0       	ldi	r22, 0x0A	; 10
     21a:	70 e0       	ldi	r23, 0x00	; 0
     21c:	0e 94 8e 0c 	call	0x191c	; 0x191c <__divmodhi4>
     220:	86 2f       	mov	r24, r22
     222:	c6 ef       	ldi	r28, 0xF6	; 246
     224:	df ef       	ldi	r29, 0xFF	; 255
     226:	6c 9f       	mul	r22, r28
     228:	d0 01       	movw	r26, r0
     22a:	6d 9f       	mul	r22, r29
     22c:	b0 0d       	add	r27, r0
     22e:	7c 9f       	mul	r23, r28
     230:	b0 0d       	add	r27, r0
     232:	11 24       	eor	r1, r1
     234:	a1 0f       	add	r26, r17
     236:	66 23       	and	r22, r22
     238:	09 f4       	brne	.+2      	; 0x23c <redraw_query_led+0xe0>
     23a:	80 e1       	ldi	r24, 0x10	; 16
     23c:	ec 51       	subi	r30, 0x1C	; 28
     23e:	ff 4f       	sbci	r31, 0xFF	; 255
     240:	81 83       	std	Z+1, r24	; 0x01
     242:	a2 83       	std	Z+2, r26	; 0x02
     244:	f9 01       	movw	r30, r18
     246:	ee 0f       	add	r30, r30
     248:	ff 1f       	adc	r31, r31
     24a:	e2 0f       	add	r30, r18
     24c:	f3 1f       	adc	r31, r19
     24e:	ee 0f       	add	r30, r30
     250:	ff 1f       	adc	r31, r31
     252:	ed 50       	subi	r30, 0x0D	; 13
     254:	ff 4f       	sbci	r31, 0xFF	; 255
     256:	20 81       	ld	r18, Z
     258:	e4 ee       	ldi	r30, 0xE4	; 228
     25a:	f0 e0       	ldi	r31, 0x00	; 0
     25c:	80 e0       	ldi	r24, 0x00	; 0
     25e:	4f 5d       	subi	r20, 0xDF	; 223
     260:	90 e1       	ldi	r25, 0x10	; 16
     262:	28 17       	cp	r18, r24
     264:	19 f0       	breq	.+6      	; 0x26c <redraw_query_led+0x110>
     266:	40 83       	st	Z, r20
     268:	91 83       	std	Z+1, r25	; 0x01
     26a:	92 83       	std	Z+2, r25	; 0x02
     26c:	8f 5f       	subi	r24, 0xFF	; 255
     26e:	33 96       	adiw	r30, 0x03	; 3
     270:	85 30       	cpi	r24, 0x05	; 5
     272:	b9 f7       	brne	.-18     	; 0x262 <redraw_query_led+0x106>
     274:	df 91       	pop	r29
     276:	cf 91       	pop	r28
     278:	1f 91       	pop	r17
     27a:	08 95       	ret

0000027c <setReleValue>:
     27c:	82 30       	cpi	r24, 0x02	; 2
     27e:	d9 f0       	breq	.+54     	; 0x2b6 <setReleValue+0x3a>
     280:	83 30       	cpi	r24, 0x03	; 3
     282:	28 f4       	brcc	.+10     	; 0x28e <setReleValue+0x12>
     284:	88 23       	and	r24, r24
     286:	51 f0       	breq	.+20     	; 0x29c <setReleValue+0x20>
     288:	81 30       	cpi	r24, 0x01	; 1
     28a:	19 f5       	brne	.+70     	; 0x2d2 <setReleValue+0x56>
     28c:	0e c0       	rjmp	.+28     	; 0x2aa <setReleValue+0x2e>
     28e:	84 30       	cpi	r24, 0x04	; 4
     290:	d9 f0       	breq	.+54     	; 0x2c8 <setReleValue+0x4c>
     292:	84 30       	cpi	r24, 0x04	; 4
     294:	b0 f0       	brcs	.+44     	; 0x2c2 <setReleValue+0x46>
     296:	85 30       	cpi	r24, 0x05	; 5
     298:	e1 f4       	brne	.+56     	; 0x2d2 <setReleValue+0x56>
     29a:	19 c0       	rjmp	.+50     	; 0x2ce <setReleValue+0x52>
     29c:	66 23       	and	r22, r22
     29e:	19 f0       	breq	.+6      	; 0x2a6 <setReleValue+0x2a>
     2a0:	84 e6       	ldi	r24, 0x64	; 100
     2a2:	8c bf       	out	0x3c, r24	; 60
     2a4:	08 95       	ret
     2a6:	1c be       	out	0x3c, r1	; 60
     2a8:	08 95       	ret
     2aa:	66 23       	and	r22, r22
     2ac:	11 f0       	breq	.+4      	; 0x2b2 <setReleValue+0x36>
     2ae:	d8 9a       	sbi	0x1b, 0	; 27
     2b0:	08 95       	ret
     2b2:	d8 98       	cbi	0x1b, 0	; 27
     2b4:	08 95       	ret
     2b6:	66 23       	and	r22, r22
     2b8:	11 f0       	breq	.+4      	; 0x2be <setReleValue+0x42>
     2ba:	d9 9a       	sbi	0x1b, 1	; 27
     2bc:	08 95       	ret
     2be:	d9 98       	cbi	0x1b, 1	; 27
     2c0:	08 95       	ret
     2c2:	60 93 a7 00 	sts	0x00A7, r22
     2c6:	08 95       	ret
     2c8:	60 93 a8 00 	sts	0x00A8, r22
     2cc:	08 95       	ret
     2ce:	60 93 a9 00 	sts	0x00A9, r22
     2d2:	08 95       	ret

000002d4 <clearReleValues>:
     2d4:	1f 93       	push	r17
     2d6:	10 e0       	ldi	r17, 0x00	; 0
     2d8:	81 2f       	mov	r24, r17
     2da:	60 e0       	ldi	r22, 0x00	; 0
     2dc:	0e 94 3e 01 	call	0x27c	; 0x27c <setReleValue>
     2e0:	1f 5f       	subi	r17, 0xFF	; 255
     2e2:	16 30       	cpi	r17, 0x06	; 6
     2e4:	c9 f7       	brne	.-14     	; 0x2d8 <clearReleValues+0x4>
     2e6:	1f 91       	pop	r17
     2e8:	08 95       	ret

000002ea <save_props>:
     2ea:	8c eb       	ldi	r24, 0xBC	; 188
     2ec:	90 e0       	ldi	r25, 0x00	; 0
     2ee:	60 e0       	ldi	r22, 0x00	; 0
     2f0:	70 e0       	ldi	r23, 0x00	; 0
     2f2:	48 e2       	ldi	r20, 0x28	; 40
     2f4:	50 e0       	ldi	r21, 0x00	; 0
     2f6:	0e 94 c5 0c 	call	0x198a	; 0x198a <__eeupd_block_m16a>
     2fa:	83 ef       	ldi	r24, 0xF3	; 243
     2fc:	90 e0       	ldi	r25, 0x00	; 0
     2fe:	68 e2       	ldi	r22, 0x28	; 40
     300:	70 e0       	ldi	r23, 0x00	; 0
     302:	48 e1       	ldi	r20, 0x18	; 24
     304:	50 e0       	ldi	r21, 0x00	; 0
     306:	0e 94 c5 0c 	call	0x198a	; 0x198a <__eeupd_block_m16a>
     30a:	08 95       	ret

0000030c <led_init>:
     30c:	e4 ee       	ldi	r30, 0xE4	; 228
     30e:	f0 e0       	ldi	r31, 0x00	; 0
     310:	81 e1       	ldi	r24, 0x11	; 17
     312:	81 93       	st	Z+, r24
     314:	90 e0       	ldi	r25, 0x00	; 0
     316:	e3 3f       	cpi	r30, 0xF3	; 243
     318:	f9 07       	cpc	r31, r25
     31a:	d9 f7       	brne	.-10     	; 0x312 <led_init+0x6>
     31c:	8f ef       	ldi	r24, 0xFF	; 255
     31e:	84 bb       	out	0x14, r24	; 20
     320:	8c ef       	ldi	r24, 0xFC	; 252
     322:	8a bb       	out	0x1a, r24	; 26
     324:	87 ef       	ldi	r24, 0xF7	; 247
     326:	87 bb       	out	0x17, r24	; 23
     328:	83 e0       	ldi	r24, 0x03	; 3
     32a:	81 bb       	out	0x11, r24	; 17
     32c:	81 e0       	ldi	r24, 0x01	; 1
     32e:	8e bd       	out	0x2e, r24	; 46
     330:	89 b7       	in	r24, 0x39	; 57
     332:	84 60       	ori	r24, 0x04	; 4
     334:	89 bf       	out	0x39, r24	; 57
     336:	88 ee       	ldi	r24, 0xE8	; 232
     338:	9d ef       	ldi	r25, 0xFD	; 253
     33a:	9d bd       	out	0x2d, r25	; 45
     33c:	8c bd       	out	0x2c, r24	; 44
     33e:	08 95       	ret

00000340 <outChar>:
     340:	a8 2f       	mov	r26, r24
     342:	8b b3       	in	r24, 0x1b	; 27
     344:	8c 6f       	ori	r24, 0xFC	; 252
     346:	8b bb       	out	0x1b, r24	; 27
     348:	88 b3       	in	r24, 0x18	; 24
     34a:	87 6f       	ori	r24, 0xF7	; 247
     34c:	88 bb       	out	0x18, r24	; 24
     34e:	82 b3       	in	r24, 0x12	; 18
     350:	83 60       	ori	r24, 0x03	; 3
     352:	82 bb       	out	0x12, r24	; 18
     354:	15 ba       	out	0x15, r1	; 21
     356:	a7 30       	cpi	r26, 0x07	; 7
     358:	71 f1       	breq	.+92     	; 0x3b6 <outChar+0x76>
     35a:	a8 30       	cpi	r26, 0x08	; 8
     35c:	70 f4       	brcc	.+28     	; 0x37a <outChar+0x3a>
     35e:	a3 30       	cpi	r26, 0x03	; 3
     360:	11 f1       	breq	.+68     	; 0x3a6 <outChar+0x66>
     362:	a4 30       	cpi	r26, 0x04	; 4
     364:	28 f4       	brcc	.+10     	; 0x370 <outChar+0x30>
     366:	a1 30       	cpi	r26, 0x01	; 1
     368:	d1 f0       	breq	.+52     	; 0x39e <outChar+0x5e>
     36a:	a2 30       	cpi	r26, 0x02	; 2
     36c:	d0 f4       	brcc	.+52     	; 0x3a2 <outChar+0x62>
     36e:	15 c0       	rjmp	.+42     	; 0x39a <outChar+0x5a>
     370:	a5 30       	cpi	r26, 0x05	; 5
     372:	e9 f0       	breq	.+58     	; 0x3ae <outChar+0x6e>
     374:	a6 30       	cpi	r26, 0x06	; 6
     376:	e8 f4       	brcc	.+58     	; 0x3b2 <outChar+0x72>
     378:	18 c0       	rjmp	.+48     	; 0x3aa <outChar+0x6a>
     37a:	ab 30       	cpi	r26, 0x0B	; 11
     37c:	21 f1       	breq	.+72     	; 0x3c6 <outChar+0x86>
     37e:	ac 30       	cpi	r26, 0x0C	; 12
     380:	28 f4       	brcc	.+10     	; 0x38c <outChar+0x4c>
     382:	a9 30       	cpi	r26, 0x09	; 9
     384:	e1 f0       	breq	.+56     	; 0x3be <outChar+0x7e>
     386:	aa 30       	cpi	r26, 0x0A	; 10
     388:	e0 f4       	brcc	.+56     	; 0x3c2 <outChar+0x82>
     38a:	17 c0       	rjmp	.+46     	; 0x3ba <outChar+0x7a>
     38c:	ad 30       	cpi	r26, 0x0D	; 13
     38e:	f9 f0       	breq	.+62     	; 0x3ce <outChar+0x8e>
     390:	ad 30       	cpi	r26, 0x0D	; 13
     392:	d8 f0       	brcs	.+54     	; 0x3ca <outChar+0x8a>
     394:	ae 30       	cpi	r26, 0x0E	; 14
     396:	f1 f4       	brne	.+60     	; 0x3d4 <outChar+0x94>
     398:	1c c0       	rjmp	.+56     	; 0x3d2 <outChar+0x92>
     39a:	c7 98       	cbi	0x18, 7	; 24
     39c:	1b c0       	rjmp	.+54     	; 0x3d4 <outChar+0x94>
     39e:	90 98       	cbi	0x12, 0	; 18
     3a0:	19 c0       	rjmp	.+50     	; 0x3d4 <outChar+0x94>
     3a2:	91 98       	cbi	0x12, 1	; 18
     3a4:	17 c0       	rjmp	.+46     	; 0x3d4 <outChar+0x94>
     3a6:	c4 98       	cbi	0x18, 4	; 24
     3a8:	15 c0       	rjmp	.+42     	; 0x3d4 <outChar+0x94>
     3aa:	c5 98       	cbi	0x18, 5	; 24
     3ac:	13 c0       	rjmp	.+38     	; 0x3d4 <outChar+0x94>
     3ae:	c6 98       	cbi	0x18, 6	; 24
     3b0:	11 c0       	rjmp	.+34     	; 0x3d4 <outChar+0x94>
     3b2:	c0 98       	cbi	0x18, 0	; 24
     3b4:	0f c0       	rjmp	.+30     	; 0x3d4 <outChar+0x94>
     3b6:	c1 98       	cbi	0x18, 1	; 24
     3b8:	0d c0       	rjmp	.+26     	; 0x3d4 <outChar+0x94>
     3ba:	c2 98       	cbi	0x18, 2	; 24
     3bc:	0b c0       	rjmp	.+22     	; 0x3d4 <outChar+0x94>
     3be:	da 98       	cbi	0x1b, 2	; 27
     3c0:	09 c0       	rjmp	.+18     	; 0x3d4 <outChar+0x94>
     3c2:	db 98       	cbi	0x1b, 3	; 27
     3c4:	07 c0       	rjmp	.+14     	; 0x3d4 <outChar+0x94>
     3c6:	dc 98       	cbi	0x1b, 4	; 27
     3c8:	05 c0       	rjmp	.+10     	; 0x3d4 <outChar+0x94>
     3ca:	dd 98       	cbi	0x1b, 5	; 27
     3cc:	03 c0       	rjmp	.+6      	; 0x3d4 <outChar+0x94>
     3ce:	de 98       	cbi	0x1b, 6	; 27
     3d0:	01 c0       	rjmp	.+2      	; 0x3d4 <outChar+0x94>
     3d2:	df 98       	cbi	0x1b, 7	; 27
     3d4:	20 91 a1 00 	lds	r18, 0x00A1
     3d8:	30 91 a2 00 	lds	r19, 0x00A2
     3dc:	2f 5f       	subi	r18, 0xFF	; 255
     3de:	3f 4f       	sbci	r19, 0xFF	; 255
     3e0:	30 93 a2 00 	sts	0x00A2, r19
     3e4:	20 93 a1 00 	sts	0x00A1, r18
     3e8:	8a 2f       	mov	r24, r26
     3ea:	63 e0       	ldi	r22, 0x03	; 3
     3ec:	0e 94 82 0c 	call	0x1904	; 0x1904 <__udivmodqi4>
     3f0:	40 91 a3 00 	lds	r20, 0x00A3
     3f4:	50 91 a4 00 	lds	r21, 0x00A4
     3f8:	41 15       	cp	r20, r1
     3fa:	51 05       	cpc	r21, r1
     3fc:	59 f5       	brne	.+86     	; 0x454 <outChar+0x114>
     3fe:	90 91 a5 00 	lds	r25, 0x00A5
     402:	99 23       	and	r25, r25
     404:	d1 f4       	brne	.+52     	; 0x43a <outChar+0xfa>
     406:	90 91 60 00 	lds	r25, 0x0060
     40a:	98 17       	cp	r25, r24
     40c:	41 f0       	breq	.+16     	; 0x41e <outChar+0xde>
     40e:	80 91 61 00 	lds	r24, 0x0061
     412:	8a 17       	cp	r24, r26
     414:	21 f0       	breq	.+8      	; 0x41e <outChar+0xde>
     416:	80 91 62 00 	lds	r24, 0x0062
     41a:	8a 17       	cp	r24, r26
     41c:	29 f4       	brne	.+10     	; 0x428 <outChar+0xe8>
     41e:	83 e1       	ldi	r24, 0x13	; 19
     420:	29 38       	cpi	r18, 0x89	; 137
     422:	38 07       	cpc	r19, r24
     424:	4c f5       	brge	.+82     	; 0x478 <__stack+0x19>
     426:	1a c0       	rjmp	.+52     	; 0x45c <outChar+0x11c>
     428:	87 e2       	ldi	r24, 0x27	; 39
     42a:	21 31       	cpi	r18, 0x11	; 17
     42c:	38 07       	cpc	r19, r24
     42e:	b4 f0       	brlt	.+44     	; 0x45c <outChar+0x11c>
     430:	10 92 a2 00 	sts	0x00A2, r1
     434:	10 92 a1 00 	sts	0x00A1, r1
     438:	11 c0       	rjmp	.+34     	; 0x45c <outChar+0x11c>
     43a:	83 e1       	ldi	r24, 0x13	; 19
     43c:	28 38       	cpi	r18, 0x88	; 136
     43e:	38 07       	cpc	r19, r24
     440:	6c f0       	brlt	.+26     	; 0x45c <outChar+0x11c>
     442:	87 e2       	ldi	r24, 0x27	; 39
     444:	21 31       	cpi	r18, 0x11	; 17
     446:	38 07       	cpc	r19, r24
     448:	bc f0       	brlt	.+46     	; 0x478 <__stack+0x19>
     44a:	10 92 a2 00 	sts	0x00A2, r1
     44e:	10 92 a1 00 	sts	0x00A1, r1
     452:	08 95       	ret
     454:	90 91 60 00 	lds	r25, 0x0060
     458:	98 17       	cp	r25, r24
     45a:	71 f4       	brne	.+28     	; 0x478 <__stack+0x19>
     45c:	b0 e0       	ldi	r27, 0x00	; 0
     45e:	ac 51       	subi	r26, 0x1C	; 28
     460:	bf 4f       	sbci	r27, 0xFF	; 255
     462:	ec 91       	ld	r30, X
     464:	f0 e0       	ldi	r31, 0x00	; 0
     466:	ef 71       	andi	r30, 0x1F	; 31
     468:	f0 70       	andi	r31, 0x00	; 0
     46a:	ed 59       	subi	r30, 0x9D	; 157
     46c:	ff 4f       	sbci	r31, 0xFF	; 255
     46e:	80 81       	ld	r24, Z
     470:	85 bb       	out	0x15, r24	; 21
     472:	8c 91       	ld	r24, X
     474:	85 fd       	sbrc	r24, 5
     476:	ab 9a       	sbi	0x15, 3	; 21
     478:	08 95       	ret

0000047a <write_num>:
     47a:	df 92       	push	r13
     47c:	ef 92       	push	r14
     47e:	ff 92       	push	r15
     480:	0f 93       	push	r16
     482:	1f 93       	push	r17
     484:	d8 2e       	mov	r13, r24
     486:	7a 01       	movw	r14, r20
     488:	8b 01       	movw	r16, r22
     48a:	cb 01       	movw	r24, r22
     48c:	ba 01       	movw	r22, r20
     48e:	20 e0       	ldi	r18, 0x00	; 0
     490:	30 e0       	ldi	r19, 0x00	; 0
     492:	a9 01       	movw	r20, r18
     494:	0e 94 e1 0a 	call	0x15c2	; 0x15c2 <__cmpsf2>
     498:	87 ff       	sbrs	r24, 7
     49a:	0b c0       	rjmp	.+22     	; 0x4b2 <write_num+0x38>
     49c:	e3 e0       	ldi	r30, 0x03	; 3
     49e:	8d 2d       	mov	r24, r13
     4a0:	8e 9f       	mul	r24, r30
     4a2:	f0 01       	movw	r30, r0
     4a4:	11 24       	eor	r1, r1
     4a6:	ec 51       	subi	r30, 0x1C	; 28
     4a8:	ff 4f       	sbci	r31, 0xFF	; 255
     4aa:	81 e1       	ldi	r24, 0x11	; 17
     4ac:	80 83       	st	Z, r24
     4ae:	81 83       	std	Z+1, r24	; 0x01
     4b0:	38 c0       	rjmp	.+112    	; 0x522 <write_num+0xa8>
     4b2:	c8 01       	movw	r24, r16
     4b4:	b7 01       	movw	r22, r14
     4b6:	20 e0       	ldi	r18, 0x00	; 0
     4b8:	30 e0       	ldi	r19, 0x00	; 0
     4ba:	40 e2       	ldi	r20, 0x20	; 32
     4bc:	51 e4       	ldi	r21, 0x41	; 65
     4be:	0e 94 1f 0c 	call	0x183e	; 0x183e <__mulsf3>
     4c2:	0e 94 53 0b 	call	0x16a6	; 0x16a6 <floor>
     4c6:	0e 94 e5 0a 	call	0x15ca	; 0x15ca <__fixsfsi>
     4ca:	fb 01       	movw	r30, r22
     4cc:	cb 01       	movw	r24, r22
     4ce:	64 e6       	ldi	r22, 0x64	; 100
     4d0:	70 e0       	ldi	r23, 0x00	; 0
     4d2:	0e 94 8e 0c 	call	0x191c	; 0x191c <__divmodhi4>
     4d6:	16 2f       	mov	r17, r22
     4d8:	46 2f       	mov	r20, r22
     4da:	50 e0       	ldi	r21, 0x00	; 0
     4dc:	8c e9       	ldi	r24, 0x9C	; 156
     4de:	9f ef       	ldi	r25, 0xFF	; 255
     4e0:	48 9f       	mul	r20, r24
     4e2:	90 01       	movw	r18, r0
     4e4:	49 9f       	mul	r20, r25
     4e6:	30 0d       	add	r19, r0
     4e8:	58 9f       	mul	r21, r24
     4ea:	30 0d       	add	r19, r0
     4ec:	11 24       	eor	r1, r1
     4ee:	2e 0f       	add	r18, r30
     4f0:	3f 1f       	adc	r19, r31
     4f2:	c9 01       	movw	r24, r18
     4f4:	6a e0       	ldi	r22, 0x0A	; 10
     4f6:	70 e0       	ldi	r23, 0x00	; 0
     4f8:	0e 94 8e 0c 	call	0x191c	; 0x191c <__divmodhi4>
     4fc:	86 ef       	ldi	r24, 0xF6	; 246
     4fe:	9f ef       	ldi	r25, 0xFF	; 255
     500:	68 9f       	mul	r22, r24
     502:	80 2d       	mov	r24, r0
     504:	11 24       	eor	r1, r1
     506:	82 0f       	add	r24, r18
     508:	11 23       	and	r17, r17
     50a:	09 f4       	brne	.+2      	; 0x50e <write_num+0x94>
     50c:	10 e1       	ldi	r17, 0x10	; 16
     50e:	e3 e0       	ldi	r30, 0x03	; 3
     510:	9d 2d       	mov	r25, r13
     512:	9e 9f       	mul	r25, r30
     514:	f0 01       	movw	r30, r0
     516:	11 24       	eor	r1, r1
     518:	ec 51       	subi	r30, 0x1C	; 28
     51a:	ff 4f       	sbci	r31, 0xFF	; 255
     51c:	10 83       	st	Z, r17
     51e:	60 62       	ori	r22, 0x20	; 32
     520:	61 83       	std	Z+1, r22	; 0x01
     522:	82 83       	std	Z+2, r24	; 0x02
     524:	1f 91       	pop	r17
     526:	0f 91       	pop	r16
     528:	ff 90       	pop	r15
     52a:	ef 90       	pop	r14
     52c:	df 90       	pop	r13
     52e:	08 95       	ret

00000530 <__vector_8>:
     530:	1f 92       	push	r1
     532:	0f 92       	push	r0
     534:	0f b6       	in	r0, 0x3f	; 63
     536:	0f 92       	push	r0
     538:	11 24       	eor	r1, r1
     53a:	2f 93       	push	r18
     53c:	3f 93       	push	r19
     53e:	4f 93       	push	r20
     540:	5f 93       	push	r21
     542:	6f 93       	push	r22
     544:	7f 93       	push	r23
     546:	8f 93       	push	r24
     548:	9f 93       	push	r25
     54a:	af 93       	push	r26
     54c:	bf 93       	push	r27
     54e:	ef 93       	push	r30
     550:	ff 93       	push	r31
     552:	88 ee       	ldi	r24, 0xE8	; 232
     554:	9d ef       	ldi	r25, 0xFD	; 253
     556:	9d bd       	out	0x2d, r25	; 45
     558:	8c bd       	out	0x2c, r24	; 44
     55a:	80 91 a6 00 	lds	r24, 0x00A6
     55e:	0e 94 a0 01 	call	0x340	; 0x340 <outChar>
     562:	80 91 a6 00 	lds	r24, 0x00A6
     566:	8f 5f       	subi	r24, 0xFF	; 255
     568:	80 93 a6 00 	sts	0x00A6, r24
     56c:	80 31       	cpi	r24, 0x10	; 16
     56e:	10 f0       	brcs	.+4      	; 0x574 <__vector_8+0x44>
     570:	10 92 a6 00 	sts	0x00A6, r1
     574:	ff 91       	pop	r31
     576:	ef 91       	pop	r30
     578:	bf 91       	pop	r27
     57a:	af 91       	pop	r26
     57c:	9f 91       	pop	r25
     57e:	8f 91       	pop	r24
     580:	7f 91       	pop	r23
     582:	6f 91       	pop	r22
     584:	5f 91       	pop	r21
     586:	4f 91       	pop	r20
     588:	3f 91       	pop	r19
     58a:	2f 91       	pop	r18
     58c:	0f 90       	pop	r0
     58e:	0f be       	out	0x3f, r0	; 63
     590:	0f 90       	pop	r0
     592:	1f 90       	pop	r1
     594:	18 95       	reti

00000596 <sound_init>:
     596:	8e eb       	ldi	r24, 0xBE	; 190
     598:	83 bd       	out	0x23, r24	; 35
     59a:	8d e6       	ldi	r24, 0x6D	; 109
     59c:	85 bd       	out	0x25, r24	; 37
     59e:	89 b7       	in	r24, 0x39	; 57
     5a0:	80 64       	ori	r24, 0x40	; 64
     5a2:	89 bf       	out	0x39, r24	; 57
     5a4:	08 95       	ret

000005a6 <sound_play>:
     5a6:	9c 01       	movw	r18, r24
     5a8:	b9 01       	movw	r22, r18
     5aa:	88 27       	eor	r24, r24
     5ac:	77 fd       	sbrc	r23, 7
     5ae:	80 95       	com	r24
     5b0:	98 2f       	mov	r25, r24
     5b2:	0e 94 18 0b 	call	0x1630	; 0x1630 <__floatsisf>
     5b6:	21 e9       	ldi	r18, 0x91	; 145
     5b8:	3d ee       	ldi	r19, 0xED	; 237
     5ba:	4c ef       	ldi	r20, 0xFC	; 252
     5bc:	5e e3       	ldi	r21, 0x3E	; 62
     5be:	0e 94 1f 0c 	call	0x183e	; 0x183e <__mulsf3>
     5c2:	0e 94 ea 0a 	call	0x15d4	; 0x15d4 <__fixunssfsi>
     5c6:	70 93 b0 00 	sts	0x00B0, r23
     5ca:	60 93 af 00 	sts	0x00AF, r22
     5ce:	08 95       	ret

000005d0 <check_signal>:
     5d0:	cf 93       	push	r28
     5d2:	df 93       	push	r29
     5d4:	c8 2f       	mov	r28, r24
     5d6:	d0 e0       	ldi	r29, 0x00	; 0
     5d8:	fe 01       	movw	r30, r28
     5da:	e9 55       	subi	r30, 0x59	; 89
     5dc:	ff 4f       	sbci	r31, 0xFF	; 255
     5de:	80 81       	ld	r24, Z
     5e0:	88 23       	and	r24, r24
     5e2:	39 f1       	breq	.+78     	; 0x632 <check_signal+0x62>
     5e4:	de 01       	movw	r26, r28
     5e6:	a6 55       	subi	r26, 0x56	; 86
     5e8:	bf 4f       	sbci	r27, 0xFF	; 255
     5ea:	8c 91       	ld	r24, X
     5ec:	fe 01       	movw	r30, r28
     5ee:	e1 58       	subi	r30, 0x81	; 129
     5f0:	ff 4f       	sbci	r31, 0xFF	; 255
     5f2:	88 23       	and	r24, r24
     5f4:	a9 f4       	brne	.+42     	; 0x620 <check_signal+0x50>
     5f6:	80 81       	ld	r24, Z
     5f8:	8f 5f       	subi	r24, 0xFF	; 255
     5fa:	80 83       	st	Z, r24
     5fc:	50 e0       	ldi	r21, 0x00	; 0
     5fe:	90 e0       	ldi	r25, 0x00	; 0
     600:	84 17       	cp	r24, r20
     602:	95 07       	cpc	r25, r21
     604:	0c f0       	brlt	.+2      	; 0x608 <check_signal+0x38>
     606:	10 82       	st	Z, r1
     608:	fe 01       	movw	r30, r28
     60a:	e6 55       	subi	r30, 0x56	; 86
     60c:	ff 4f       	sbci	r31, 0xFF	; 255
     60e:	de 01       	movw	r26, r28
     610:	a1 58       	subi	r26, 0x81	; 129
     612:	bf 4f       	sbci	r27, 0xFF	; 255
     614:	8c 91       	ld	r24, X
     616:	68 0f       	add	r22, r24
     618:	71 1d       	adc	r23, r1
     61a:	db 01       	movw	r26, r22
     61c:	8c 91       	ld	r24, X
     61e:	0d c0       	rjmp	.+26     	; 0x63a <check_signal+0x6a>
     620:	81 50       	subi	r24, 0x01	; 1
     622:	8c 93       	st	X, r24
     624:	80 81       	ld	r24, Z
     626:	80 fd       	sbrc	r24, 0
     628:	09 c0       	rjmp	.+18     	; 0x63c <check_signal+0x6c>
     62a:	c9 01       	movw	r24, r18
     62c:	0e 94 d3 02 	call	0x5a6	; 0x5a6 <sound_play>
     630:	05 c0       	rjmp	.+10     	; 0x63c <check_signal+0x6c>
     632:	fe 01       	movw	r30, r28
     634:	e1 58       	subi	r30, 0x81	; 129
     636:	ff 4f       	sbci	r31, 0xFF	; 255
     638:	8f ef       	ldi	r24, 0xFF	; 255
     63a:	80 83       	st	Z, r24
     63c:	c9 55       	subi	r28, 0x59	; 89
     63e:	df 4f       	sbci	r29, 0xFF	; 255
     640:	88 81       	ld	r24, Y
     642:	df 91       	pop	r29
     644:	cf 91       	pop	r28
     646:	08 95       	ret

00000648 <__vector_4>:
     648:	1f 92       	push	r1
     64a:	0f 92       	push	r0
     64c:	0f b6       	in	r0, 0x3f	; 63
     64e:	0f 92       	push	r0
     650:	11 24       	eor	r1, r1
     652:	2f 93       	push	r18
     654:	3f 93       	push	r19
     656:	4f 93       	push	r20
     658:	5f 93       	push	r21
     65a:	6f 93       	push	r22
     65c:	7f 93       	push	r23
     65e:	8f 93       	push	r24
     660:	9f 93       	push	r25
     662:	af 93       	push	r26
     664:	bf 93       	push	r27
     666:	ef 93       	push	r30
     668:	ff 93       	push	r31
     66a:	8f e7       	ldi	r24, 0x7F	; 127
     66c:	84 bd       	out	0x24, r24	; 36
     66e:	80 91 af 00 	lds	r24, 0x00AF
     672:	90 91 b0 00 	lds	r25, 0x00B0
     676:	00 97       	sbiw	r24, 0x00	; 0
     678:	39 f0       	breq	.+14     	; 0x688 <__vector_4+0x40>
     67a:	8f 9a       	sbi	0x11, 7	; 17
     67c:	01 97       	sbiw	r24, 0x01	; 1
     67e:	90 93 b0 00 	sts	0x00B0, r25
     682:	80 93 af 00 	sts	0x00AF, r24
     686:	01 c0       	rjmp	.+2      	; 0x68a <__vector_4+0x42>
     688:	8f 98       	cbi	0x11, 7	; 17
     68a:	80 91 ad 00 	lds	r24, 0x00AD
     68e:	90 91 ae 00 	lds	r25, 0x00AE
     692:	00 97       	sbiw	r24, 0x00	; 0
     694:	11 f5       	brne	.+68     	; 0x6da <__vector_4+0x92>
     696:	84 e6       	ldi	r24, 0x64	; 100
     698:	90 e0       	ldi	r25, 0x00	; 0
     69a:	90 93 ae 00 	sts	0x00AE, r25
     69e:	80 93 ad 00 	sts	0x00AD, r24
     6a2:	82 e0       	ldi	r24, 0x02	; 2
     6a4:	6d e7       	ldi	r22, 0x7D	; 125
     6a6:	70 e0       	ldi	r23, 0x00	; 0
     6a8:	42 e0       	ldi	r20, 0x02	; 2
     6aa:	24 ef       	ldi	r18, 0xF4	; 244
     6ac:	31 e0       	ldi	r19, 0x01	; 1
     6ae:	0e 94 e8 02 	call	0x5d0	; 0x5d0 <check_signal>
     6b2:	88 23       	and	r24, r24
     6b4:	b9 f4       	brne	.+46     	; 0x6e4 <__vector_4+0x9c>
     6b6:	81 e0       	ldi	r24, 0x01	; 1
     6b8:	69 e7       	ldi	r22, 0x79	; 121
     6ba:	70 e0       	ldi	r23, 0x00	; 0
     6bc:	44 e0       	ldi	r20, 0x04	; 4
     6be:	2a ef       	ldi	r18, 0xFA	; 250
     6c0:	30 e0       	ldi	r19, 0x00	; 0
     6c2:	0e 94 e8 02 	call	0x5d0	; 0x5d0 <check_signal>
     6c6:	88 23       	and	r24, r24
     6c8:	69 f4       	brne	.+26     	; 0x6e4 <__vector_4+0x9c>
     6ca:	67 e7       	ldi	r22, 0x77	; 119
     6cc:	70 e0       	ldi	r23, 0x00	; 0
     6ce:	42 e0       	ldi	r20, 0x02	; 2
     6d0:	24 ef       	ldi	r18, 0xF4	; 244
     6d2:	31 e0       	ldi	r19, 0x01	; 1
     6d4:	0e 94 e8 02 	call	0x5d0	; 0x5d0 <check_signal>
     6d8:	05 c0       	rjmp	.+10     	; 0x6e4 <__vector_4+0x9c>
     6da:	01 97       	sbiw	r24, 0x01	; 1
     6dc:	90 93 ae 00 	sts	0x00AE, r25
     6e0:	80 93 ad 00 	sts	0x00AD, r24
     6e4:	ff 91       	pop	r31
     6e6:	ef 91       	pop	r30
     6e8:	bf 91       	pop	r27
     6ea:	af 91       	pop	r26
     6ec:	9f 91       	pop	r25
     6ee:	8f 91       	pop	r24
     6f0:	7f 91       	pop	r23
     6f2:	6f 91       	pop	r22
     6f4:	5f 91       	pop	r21
     6f6:	4f 91       	pop	r20
     6f8:	3f 91       	pop	r19
     6fa:	2f 91       	pop	r18
     6fc:	0f 90       	pop	r0
     6fe:	0f be       	out	0x3f, r0	; 63
     700:	0f 90       	pop	r0
     702:	1f 90       	pop	r1
     704:	18 95       	reti

00000706 <crc_table>:
     706:	28 2f       	mov	r18, r24
     708:	98 e0       	ldi	r25, 0x08	; 8
     70a:	80 e0       	ldi	r24, 0x00	; 0
     70c:	48 e1       	ldi	r20, 0x18	; 24
     70e:	38 2f       	mov	r19, r24
     710:	32 27       	eor	r19, r18
     712:	53 2f       	mov	r21, r19
     714:	51 70       	andi	r21, 0x01	; 1
     716:	30 fd       	sbrc	r19, 0
     718:	84 27       	eor	r24, r20
     71a:	86 95       	lsr	r24
     71c:	51 30       	cpi	r21, 0x01	; 1
     71e:	09 f4       	brne	.+2      	; 0x722 <crc_table+0x1c>
     720:	80 68       	ori	r24, 0x80	; 128
     722:	91 50       	subi	r25, 0x01	; 1
     724:	11 f0       	breq	.+4      	; 0x72a <crc_table+0x24>
     726:	26 95       	lsr	r18
     728:	f2 cf       	rjmp	.-28     	; 0x70e <crc_table+0x8>
     72a:	08 95       	ret

0000072c <ow_master_init>:
     72c:	21 b3       	in	r18, 0x11	; 17
     72e:	30 b3       	in	r19, 0x10	; 16
     730:	81 e0       	ldi	r24, 0x01	; 1
     732:	90 e0       	ldi	r25, 0x00	; 0
     734:	02 c0       	rjmp	.+4      	; 0x73a <ow_master_init+0xe>
     736:	88 0f       	add	r24, r24
     738:	99 1f       	adc	r25, r25
     73a:	3a 95       	dec	r19
     73c:	e2 f7       	brpl	.-8      	; 0x736 <ow_master_init+0xa>
     73e:	80 95       	com	r24
     740:	82 23       	and	r24, r18
     742:	81 bb       	out	0x11, r24	; 17
     744:	08 95       	ret

00000746 <OW_M_set>:
     746:	88 23       	and	r24, r24
     748:	19 f0       	breq	.+6      	; 0x750 <OW_M_set+0xa>
     74a:	92 98       	cbi	0x12, 2	; 18
     74c:	8a 9a       	sbi	0x11, 2	; 17
     74e:	08 95       	ret
     750:	92 98       	cbi	0x12, 2	; 18
     752:	8a 98       	cbi	0x11, 2	; 17
     754:	08 95       	ret

00000756 <OW_M_checkIn>:
     756:	80 b3       	in	r24, 0x10	; 16
     758:	84 70       	andi	r24, 0x04	; 4
     75a:	08 95       	ret

0000075c <OW_M_reset>:
     75c:	81 e0       	ldi	r24, 0x01	; 1
     75e:	0e 94 a3 03 	call	0x746	; 0x746 <OW_M_set>
     762:	8f eb       	ldi	r24, 0xBF	; 191
     764:	93 e0       	ldi	r25, 0x03	; 3
     766:	01 97       	sbiw	r24, 0x01	; 1
     768:	f1 f7       	brne	.-4      	; 0x766 <OW_M_reset+0xa>
     76a:	00 c0       	rjmp	.+0      	; 0x76c <OW_M_reset+0x10>
     76c:	00 00       	nop
     76e:	80 e0       	ldi	r24, 0x00	; 0
     770:	0e 94 a3 03 	call	0x746	; 0x746 <OW_M_set>
     774:	90 ea       	ldi	r25, 0xA0	; 160
     776:	9a 95       	dec	r25
     778:	f1 f7       	brne	.-4      	; 0x776 <OW_M_reset+0x1a>
     77a:	90 b3       	in	r25, 0x10	; 16
     77c:	e7 e4       	ldi	r30, 0x47	; 71
     77e:	f3 e0       	ldi	r31, 0x03	; 3
     780:	31 97       	sbiw	r30, 0x01	; 1
     782:	f1 f7       	brne	.-4      	; 0x780 <OW_M_reset+0x24>
     784:	00 c0       	rjmp	.+0      	; 0x786 <OW_M_reset+0x2a>
     786:	00 00       	nop
     788:	81 e0       	ldi	r24, 0x01	; 1
     78a:	92 fd       	sbrc	r25, 2
     78c:	80 e0       	ldi	r24, 0x00	; 0
     78e:	08 95       	ret

00000790 <OW_M_writeBit>:
     790:	1f 93       	push	r17
     792:	18 2f       	mov	r17, r24
     794:	81 e0       	ldi	r24, 0x01	; 1
     796:	0e 94 a3 03 	call	0x746	; 0x746 <OW_M_set>
     79a:	82 e0       	ldi	r24, 0x02	; 2
     79c:	8a 95       	dec	r24
     79e:	f1 f7       	brne	.-4      	; 0x79c <OW_M_writeBit+0xc>
     7a0:	00 c0       	rjmp	.+0      	; 0x7a2 <OW_M_writeBit+0x12>
     7a2:	11 23       	and	r17, r17
     7a4:	19 f0       	breq	.+6      	; 0x7ac <OW_M_writeBit+0x1c>
     7a6:	80 e0       	ldi	r24, 0x00	; 0
     7a8:	0e 94 a3 03 	call	0x746	; 0x746 <OW_M_set>
     7ac:	80 ea       	ldi	r24, 0xA0	; 160
     7ae:	8a 95       	dec	r24
     7b0:	f1 f7       	brne	.-4      	; 0x7ae <OW_M_writeBit+0x1e>
     7b2:	80 e0       	ldi	r24, 0x00	; 0
     7b4:	0e 94 a3 03 	call	0x746	; 0x746 <OW_M_set>
     7b8:	1f 91       	pop	r17
     7ba:	08 95       	ret

000007bc <OW_M_readBit>:
     7bc:	81 e0       	ldi	r24, 0x01	; 1
     7be:	0e 94 a3 03 	call	0x746	; 0x746 <OW_M_set>
     7c2:	82 e0       	ldi	r24, 0x02	; 2
     7c4:	8a 95       	dec	r24
     7c6:	f1 f7       	brne	.-4      	; 0x7c4 <OW_M_readBit+0x8>
     7c8:	00 c0       	rjmp	.+0      	; 0x7ca <OW_M_readBit+0xe>
     7ca:	80 e0       	ldi	r24, 0x00	; 0
     7cc:	0e 94 a3 03 	call	0x746	; 0x746 <OW_M_set>
     7d0:	85 e2       	ldi	r24, 0x25	; 37
     7d2:	8a 95       	dec	r24
     7d4:	f1 f7       	brne	.-4      	; 0x7d2 <OW_M_readBit+0x16>
     7d6:	00 00       	nop
     7d8:	90 b3       	in	r25, 0x10	; 16
     7da:	88 e7       	ldi	r24, 0x78	; 120
     7dc:	8a 95       	dec	r24
     7de:	f1 f7       	brne	.-4      	; 0x7dc <OW_M_readBit+0x20>
     7e0:	81 e0       	ldi	r24, 0x01	; 1
     7e2:	92 ff       	sbrs	r25, 2
     7e4:	80 e0       	ldi	r24, 0x00	; 0
     7e6:	08 95       	ret

000007e8 <OW_M_writeByte>:
     7e8:	ff 92       	push	r15
     7ea:	0f 93       	push	r16
     7ec:	1f 93       	push	r17
     7ee:	cf 93       	push	r28
     7f0:	df 93       	push	r29
     7f2:	f8 2e       	mov	r15, r24
     7f4:	c0 e0       	ldi	r28, 0x00	; 0
     7f6:	d0 e0       	ldi	r29, 0x00	; 0
     7f8:	01 e0       	ldi	r16, 0x01	; 1
     7fa:	10 e0       	ldi	r17, 0x00	; 0
     7fc:	98 01       	movw	r18, r16
     7fe:	0c 2e       	mov	r0, r28
     800:	02 c0       	rjmp	.+4      	; 0x806 <OW_M_writeByte+0x1e>
     802:	22 0f       	add	r18, r18
     804:	33 1f       	adc	r19, r19
     806:	0a 94       	dec	r0
     808:	e2 f7       	brpl	.-8      	; 0x802 <OW_M_writeByte+0x1a>
     80a:	8f 2d       	mov	r24, r15
     80c:	82 23       	and	r24, r18
     80e:	0e 94 c8 03 	call	0x790	; 0x790 <OW_M_writeBit>
     812:	21 96       	adiw	r28, 0x01	; 1
     814:	c8 30       	cpi	r28, 0x08	; 8
     816:	d1 05       	cpc	r29, r1
     818:	89 f7       	brne	.-30     	; 0x7fc <OW_M_writeByte+0x14>
     81a:	df 91       	pop	r29
     81c:	cf 91       	pop	r28
     81e:	1f 91       	pop	r17
     820:	0f 91       	pop	r16
     822:	ff 90       	pop	r15
     824:	08 95       	ret

00000826 <OW_M_readByte>:
     826:	ff 92       	push	r15
     828:	0f 93       	push	r16
     82a:	1f 93       	push	r17
     82c:	cf 93       	push	r28
     82e:	df 93       	push	r29
     830:	c0 e0       	ldi	r28, 0x00	; 0
     832:	d0 e0       	ldi	r29, 0x00	; 0
     834:	ff 24       	eor	r15, r15
     836:	01 e0       	ldi	r16, 0x01	; 1
     838:	10 e0       	ldi	r17, 0x00	; 0
     83a:	0e 94 de 03 	call	0x7bc	; 0x7bc <OW_M_readBit>
     83e:	88 23       	and	r24, r24
     840:	41 f0       	breq	.+16     	; 0x852 <OW_M_readByte+0x2c>
     842:	98 01       	movw	r18, r16
     844:	0c 2e       	mov	r0, r28
     846:	02 c0       	rjmp	.+4      	; 0x84c <OW_M_readByte+0x26>
     848:	22 0f       	add	r18, r18
     84a:	33 1f       	adc	r19, r19
     84c:	0a 94       	dec	r0
     84e:	e2 f7       	brpl	.-8      	; 0x848 <OW_M_readByte+0x22>
     850:	f2 2a       	or	r15, r18
     852:	21 96       	adiw	r28, 0x01	; 1
     854:	c8 30       	cpi	r28, 0x08	; 8
     856:	d1 05       	cpc	r29, r1
     858:	81 f7       	brne	.-32     	; 0x83a <OW_M_readByte+0x14>
     85a:	8f 2d       	mov	r24, r15
     85c:	df 91       	pop	r29
     85e:	cf 91       	pop	r28
     860:	1f 91       	pop	r17
     862:	0f 91       	pop	r16
     864:	ff 90       	pop	r15
     866:	08 95       	ret

00000868 <OW_M_searchROM>:
     868:	df 92       	push	r13
     86a:	ef 92       	push	r14
     86c:	ff 92       	push	r15
     86e:	0f 93       	push	r16
     870:	1f 93       	push	r17
     872:	cf 93       	push	r28
     874:	df 93       	push	r29
     876:	18 2f       	mov	r17, r24
     878:	eb 01       	movw	r28, r22
     87a:	0e 94 ae 03 	call	0x75c	; 0x75c <OW_M_reset>
     87e:	88 23       	and	r24, r24
     880:	79 f1       	breq	.+94     	; 0x8e0 <OW_M_searchROM+0x78>
     882:	80 ef       	ldi	r24, 0xF0	; 240
     884:	0e 94 f4 03 	call	0x7e8	; 0x7e8 <OW_M_writeByte>
     888:	ee 24       	eor	r14, r14
     88a:	00 e4       	ldi	r16, 0x40	; 64
     88c:	48 ef       	ldi	r20, 0xF8	; 248
     88e:	d4 2e       	mov	r13, r20
     890:	d0 0e       	add	r13, r16
     892:	0e 94 de 03 	call	0x7bc	; 0x7bc <OW_M_readBit>
     896:	f8 2e       	mov	r15, r24
     898:	0e 94 de 03 	call	0x7bc	; 0x7bc <OW_M_readBit>
     89c:	88 23       	and	r24, r24
     89e:	19 f0       	breq	.+6      	; 0x8a6 <OW_M_searchROM+0x3e>
     8a0:	ff 20       	and	r15, r15
     8a2:	69 f0       	breq	.+26     	; 0x8be <OW_M_searchROM+0x56>
     8a4:	20 c0       	rjmp	.+64     	; 0x8e6 <OW_M_searchROM+0x7e>
     8a6:	ff 20       	and	r15, r15
     8a8:	51 f4       	brne	.+20     	; 0x8be <OW_M_searchROM+0x56>
     8aa:	01 17       	cp	r16, r17
     8ac:	28 f0       	brcs	.+10     	; 0x8b8 <OW_M_searchROM+0x50>
     8ae:	88 81       	ld	r24, Y
     8b0:	80 ff       	sbrs	r24, 0
     8b2:	05 c0       	rjmp	.+10     	; 0x8be <OW_M_searchROM+0x56>
     8b4:	10 17       	cp	r17, r16
     8b6:	19 f0       	breq	.+6      	; 0x8be <OW_M_searchROM+0x56>
     8b8:	e0 2e       	mov	r14, r16
     8ba:	ff 24       	eor	r15, r15
     8bc:	f3 94       	inc	r15
     8be:	8f 2d       	mov	r24, r15
     8c0:	0e 94 c8 03 	call	0x790	; 0x790 <OW_M_writeBit>
     8c4:	88 81       	ld	r24, Y
     8c6:	86 95       	lsr	r24
     8c8:	88 83       	st	Y, r24
     8ca:	ff 20       	and	r15, r15
     8cc:	11 f0       	breq	.+4      	; 0x8d2 <OW_M_searchROM+0x6a>
     8ce:	80 68       	ori	r24, 0x80	; 128
     8d0:	88 83       	st	Y, r24
     8d2:	01 50       	subi	r16, 0x01	; 1
     8d4:	0d 15       	cp	r16, r13
     8d6:	e9 f6       	brne	.-70     	; 0x892 <OW_M_searchROM+0x2a>
     8d8:	00 23       	and	r16, r16
     8da:	39 f0       	breq	.+14     	; 0x8ea <OW_M_searchROM+0x82>
     8dc:	21 96       	adiw	r28, 0x01	; 1
     8de:	d6 cf       	rjmp	.-84     	; 0x88c <OW_M_searchROM+0x24>
     8e0:	ee 24       	eor	r14, r14
     8e2:	ea 94       	dec	r14
     8e4:	02 c0       	rjmp	.+4      	; 0x8ea <OW_M_searchROM+0x82>
     8e6:	3e ef       	ldi	r19, 0xFE	; 254
     8e8:	e3 2e       	mov	r14, r19
     8ea:	8e 2d       	mov	r24, r14
     8ec:	df 91       	pop	r29
     8ee:	cf 91       	pop	r28
     8f0:	1f 91       	pop	r17
     8f2:	0f 91       	pop	r16
     8f4:	ff 90       	pop	r15
     8f6:	ef 90       	pop	r14
     8f8:	df 90       	pop	r13
     8fa:	08 95       	ret

000008fc <OW_M_scan_devs>:
     8fc:	bf 92       	push	r11
     8fe:	cf 92       	push	r12
     900:	df 92       	push	r13
     902:	ef 92       	push	r14
     904:	ff 92       	push	r15
     906:	0f 93       	push	r16
     908:	1f 93       	push	r17
     90a:	df 93       	push	r29
     90c:	cf 93       	push	r28
     90e:	cd b7       	in	r28, 0x3d	; 61
     910:	de b7       	in	r29, 0x3e	; 62
     912:	28 97       	sbiw	r28, 0x08	; 8
     914:	0f b6       	in	r0, 0x3f	; 63
     916:	f8 94       	cli
     918:	de bf       	out	0x3e, r29	; 62
     91a:	0f be       	out	0x3f, r0	; 63
     91c:	cd bf       	out	0x3d, r28	; 61
     91e:	f8 94       	cli
     920:	00 e0       	ldi	r16, 0x00	; 0
     922:	10 e0       	ldi	r17, 0x00	; 0
     924:	8f ef       	ldi	r24, 0xFF	; 255
     926:	7e 01       	movw	r14, r28
     928:	08 94       	sec
     92a:	e1 1c       	adc	r14, r1
     92c:	f1 1c       	adc	r15, r1
     92e:	79 e0       	ldi	r23, 0x09	; 9
     930:	c7 2e       	mov	r12, r23
     932:	d1 2c       	mov	r13, r1
     934:	cc 0e       	add	r12, r28
     936:	dd 1e       	adc	r13, r29
     938:	b0 2e       	mov	r11, r16
     93a:	b7 01       	movw	r22, r14
     93c:	0e 94 34 04 	call	0x868	; 0x868 <OW_M_searchROM>
     940:	8f 3f       	cpi	r24, 0xFF	; 255
     942:	29 f1       	breq	.+74     	; 0x98e <OW_M_scan_devs+0x92>
     944:	8e 3f       	cpi	r24, 0xFE	; 254
     946:	19 f1       	breq	.+70     	; 0x98e <OW_M_scan_devs+0x92>
     948:	d7 01       	movw	r26, r14
     94a:	f8 01       	movw	r30, r16
     94c:	63 e0       	ldi	r22, 0x03	; 3
     94e:	ee 0f       	add	r30, r30
     950:	ff 1f       	adc	r31, r31
     952:	6a 95       	dec	r22
     954:	e1 f7       	brne	.-8      	; 0x94e <OW_M_scan_devs+0x52>
     956:	e4 54       	subi	r30, 0x44	; 68
     958:	ff 4f       	sbci	r31, 0xFF	; 255
     95a:	9d 91       	ld	r25, X+
     95c:	91 93       	st	Z+, r25
     95e:	ac 15       	cp	r26, r12
     960:	bd 05       	cpc	r27, r13
     962:	d9 f7       	brne	.-10     	; 0x95a <OW_M_scan_devs+0x5e>
     964:	b3 94       	inc	r11
     966:	88 23       	and	r24, r24
     968:	29 f0       	breq	.+10     	; 0x974 <OW_M_scan_devs+0x78>
     96a:	0f 5f       	subi	r16, 0xFF	; 255
     96c:	1f 4f       	sbci	r17, 0xFF	; 255
     96e:	05 30       	cpi	r16, 0x05	; 5
     970:	11 05       	cpc	r17, r1
     972:	11 f7       	brne	.-60     	; 0x938 <OW_M_scan_devs+0x3c>
     974:	0b 2d       	mov	r16, r11
     976:	0b c0       	rjmp	.+22     	; 0x98e <OW_M_scan_devs+0x92>
     978:	e0 2f       	mov	r30, r16
     97a:	f0 e0       	ldi	r31, 0x00	; 0
     97c:	53 e0       	ldi	r21, 0x03	; 3
     97e:	ee 0f       	add	r30, r30
     980:	ff 1f       	adc	r31, r31
     982:	5a 95       	dec	r21
     984:	e1 f7       	brne	.-8      	; 0x97e <OW_M_scan_devs+0x82>
     986:	e4 54       	subi	r30, 0x44	; 68
     988:	ff 4f       	sbci	r31, 0xFF	; 255
     98a:	10 82       	st	Z, r1
     98c:	0f 5f       	subi	r16, 0xFF	; 255
     98e:	05 30       	cpi	r16, 0x05	; 5
     990:	98 f3       	brcs	.-26     	; 0x978 <OW_M_scan_devs+0x7c>
     992:	78 94       	sei
     994:	28 96       	adiw	r28, 0x08	; 8
     996:	0f b6       	in	r0, 0x3f	; 63
     998:	f8 94       	cli
     99a:	de bf       	out	0x3e, r29	; 62
     99c:	0f be       	out	0x3f, r0	; 63
     99e:	cd bf       	out	0x3d, r28	; 61
     9a0:	cf 91       	pop	r28
     9a2:	df 91       	pop	r29
     9a4:	1f 91       	pop	r17
     9a6:	0f 91       	pop	r16
     9a8:	ff 90       	pop	r15
     9aa:	ef 90       	pop	r14
     9ac:	df 90       	pop	r13
     9ae:	cf 90       	pop	r12
     9b0:	bf 90       	pop	r11
     9b2:	08 95       	ret

000009b4 <OW_M_matchROM>:
     9b4:	ef 92       	push	r14
     9b6:	ff 92       	push	r15
     9b8:	0f 93       	push	r16
     9ba:	1f 93       	push	r17
     9bc:	cf 93       	push	r28
     9be:	df 93       	push	r29
     9c0:	18 2f       	mov	r17, r24
     9c2:	09 2f       	mov	r16, r25
     9c4:	0e 94 ae 03 	call	0x75c	; 0x75c <OW_M_reset>
     9c8:	88 23       	and	r24, r24
     9ca:	89 f0       	breq	.+34     	; 0x9ee <OW_M_matchROM+0x3a>
     9cc:	85 e5       	ldi	r24, 0x55	; 85
     9ce:	0e 94 f4 03 	call	0x7e8	; 0x7e8 <OW_M_writeByte>
     9d2:	c8 01       	movw	r24, r16
     9d4:	e9 2e       	mov	r14, r25
     9d6:	e7 01       	movw	r28, r14
     9d8:	7e 01       	movw	r14, r28
     9da:	f8 2e       	mov	r15, r24
     9dc:	e7 01       	movw	r28, r14
     9de:	18 e0       	ldi	r17, 0x08	; 8
     9e0:	89 91       	ld	r24, Y+
     9e2:	0e 94 f4 03 	call	0x7e8	; 0x7e8 <OW_M_writeByte>
     9e6:	11 50       	subi	r17, 0x01	; 1
     9e8:	d9 f7       	brne	.-10     	; 0x9e0 <OW_M_matchROM+0x2c>
     9ea:	81 e0       	ldi	r24, 0x01	; 1
     9ec:	01 c0       	rjmp	.+2      	; 0x9f0 <OW_M_matchROM+0x3c>
     9ee:	80 e0       	ldi	r24, 0x00	; 0
     9f0:	df 91       	pop	r29
     9f2:	cf 91       	pop	r28
     9f4:	1f 91       	pop	r17
     9f6:	0f 91       	pop	r16
     9f8:	ff 90       	pop	r15
     9fa:	ef 90       	pop	r14
     9fc:	08 95       	ret

000009fe <getTemp>:
     9fe:	df 92       	push	r13
     a00:	ef 92       	push	r14
     a02:	ff 92       	push	r15
     a04:	0f 93       	push	r16
     a06:	1f 93       	push	r17
     a08:	df 93       	push	r29
     a0a:	cf 93       	push	r28
     a0c:	cd b7       	in	r28, 0x3d	; 61
     a0e:	de b7       	in	r29, 0x3e	; 62
     a10:	28 97       	sbiw	r28, 0x08	; 8
     a12:	0f b6       	in	r0, 0x3f	; 63
     a14:	f8 94       	cli
     a16:	de bf       	out	0x3e, r29	; 62
     a18:	0f be       	out	0x3f, r0	; 63
     a1a:	cd bf       	out	0x3d, r28	; 61
     a1c:	8c 01       	movw	r16, r24
     a1e:	0e 94 ae 03 	call	0x75c	; 0x75c <OW_M_reset>
     a22:	88 23       	and	r24, r24
     a24:	91 f1       	breq	.+100    	; 0xa8a <getTemp+0x8c>
     a26:	c8 01       	movw	r24, r16
     a28:	0e 94 da 04 	call	0x9b4	; 0x9b4 <OW_M_matchROM>
     a2c:	8e eb       	ldi	r24, 0xBE	; 190
     a2e:	0e 94 f4 03 	call	0x7e8	; 0x7e8 <OW_M_writeByte>
     a32:	8e 01       	movw	r16, r28
     a34:	0f 5f       	subi	r16, 0xFF	; 255
     a36:	1f 4f       	sbci	r17, 0xFF	; 255
     a38:	e9 e0       	ldi	r30, 0x09	; 9
     a3a:	ee 2e       	mov	r14, r30
     a3c:	f1 2c       	mov	r15, r1
     a3e:	ec 0e       	add	r14, r28
     a40:	fd 1e       	adc	r15, r29
     a42:	dd 24       	eor	r13, r13
     a44:	0e 94 13 04 	call	0x826	; 0x826 <OW_M_readByte>
     a48:	f8 01       	movw	r30, r16
     a4a:	81 93       	st	Z+, r24
     a4c:	8f 01       	movw	r16, r30
     a4e:	8d 25       	eor	r24, r13
     a50:	0e 94 83 03 	call	0x706	; 0x706 <crc_table>
     a54:	d8 2e       	mov	r13, r24
     a56:	0e 15       	cp	r16, r14
     a58:	1f 05       	cpc	r17, r15
     a5a:	a1 f7       	brne	.-24     	; 0xa44 <getTemp+0x46>
     a5c:	0e 94 13 04 	call	0x826	; 0x826 <OW_M_readByte>
     a60:	d8 16       	cp	r13, r24
     a62:	99 f4       	brne	.+38     	; 0xa8a <getTemp+0x8c>
     a64:	9a 81       	ldd	r25, Y+2	; 0x02
     a66:	80 e0       	ldi	r24, 0x00	; 0
     a68:	69 81       	ldd	r22, Y+1	; 0x01
     a6a:	70 e0       	ldi	r23, 0x00	; 0
     a6c:	68 2b       	or	r22, r24
     a6e:	79 2b       	or	r23, r25
     a70:	88 27       	eor	r24, r24
     a72:	77 fd       	sbrc	r23, 7
     a74:	80 95       	com	r24
     a76:	98 2f       	mov	r25, r24
     a78:	0e 94 18 0b 	call	0x1630	; 0x1630 <__floatsisf>
     a7c:	20 e0       	ldi	r18, 0x00	; 0
     a7e:	30 e0       	ldi	r19, 0x00	; 0
     a80:	40 e8       	ldi	r20, 0x80	; 128
     a82:	5d e3       	ldi	r21, 0x3D	; 61
     a84:	0e 94 1f 0c 	call	0x183e	; 0x183e <__mulsf3>
     a88:	04 c0       	rjmp	.+8      	; 0xa92 <getTemp+0x94>
     a8a:	60 e0       	ldi	r22, 0x00	; 0
     a8c:	70 e0       	ldi	r23, 0x00	; 0
     a8e:	88 ec       	ldi	r24, 0xC8	; 200
     a90:	92 ec       	ldi	r25, 0xC2	; 194
     a92:	28 96       	adiw	r28, 0x08	; 8
     a94:	0f b6       	in	r0, 0x3f	; 63
     a96:	f8 94       	cli
     a98:	de bf       	out	0x3e, r29	; 62
     a9a:	0f be       	out	0x3f, r0	; 63
     a9c:	cd bf       	out	0x3d, r28	; 61
     a9e:	cf 91       	pop	r28
     aa0:	df 91       	pop	r29
     aa2:	1f 91       	pop	r17
     aa4:	0f 91       	pop	r16
     aa6:	ff 90       	pop	r15
     aa8:	ef 90       	pop	r14
     aaa:	df 90       	pop	r13
     aac:	08 95       	ret

00000aae <checkTemp>:
     aae:	cf 93       	push	r28
     ab0:	df 93       	push	r29
     ab2:	80 91 b1 00 	lds	r24, 0x00B1
     ab6:	81 50       	subi	r24, 0x01	; 1
     ab8:	80 93 b1 00 	sts	0x00B1, r24
     abc:	88 23       	and	r24, r24
     abe:	09 f0       	breq	.+2      	; 0xac2 <checkTemp+0x14>
     ac0:	57 c0       	rjmp	.+174    	; 0xb70 <checkTemp+0xc2>
     ac2:	f8 94       	cli
     ac4:	15 ba       	out	0x15, r1	; 21
     ac6:	80 91 96 00 	lds	r24, 0x0096
     aca:	80 93 b1 00 	sts	0x00B1, r24
     ace:	80 91 b2 00 	lds	r24, 0x00B2
     ad2:	c8 2f       	mov	r28, r24
     ad4:	d0 e0       	ldi	r29, 0x00	; 0
     ad6:	ce 01       	movw	r24, r28
     ad8:	23 e0       	ldi	r18, 0x03	; 3
     ada:	88 0f       	add	r24, r24
     adc:	99 1f       	adc	r25, r25
     ade:	2a 95       	dec	r18
     ae0:	e1 f7       	brne	.-8      	; 0xada <checkTemp+0x2c>
     ae2:	84 54       	subi	r24, 0x44	; 68
     ae4:	9f 4f       	sbci	r25, 0xFF	; 255
     ae6:	fc 01       	movw	r30, r24
     ae8:	20 81       	ld	r18, Z
     aea:	cc 0f       	add	r28, r28
     aec:	dd 1f       	adc	r29, r29
     aee:	cc 0f       	add	r28, r28
     af0:	dd 1f       	adc	r29, r29
     af2:	22 23       	and	r18, r18
     af4:	49 f0       	breq	.+18     	; 0xb08 <checkTemp+0x5a>
     af6:	0e 94 ff 04 	call	0x9fe	; 0x9fe <getTemp>
     afa:	ce 57       	subi	r28, 0x7E	; 126
     afc:	df 4f       	sbci	r29, 0xFF	; 255
     afe:	68 83       	st	Y, r22
     b00:	79 83       	std	Y+1, r23	; 0x01
     b02:	8a 83       	std	Y+2, r24	; 0x02
     b04:	9b 83       	std	Y+3, r25	; 0x03
     b06:	0a c0       	rjmp	.+20     	; 0xb1c <checkTemp+0x6e>
     b08:	ce 57       	subi	r28, 0x7E	; 126
     b0a:	df 4f       	sbci	r29, 0xFF	; 255
     b0c:	80 e0       	ldi	r24, 0x00	; 0
     b0e:	90 e0       	ldi	r25, 0x00	; 0
     b10:	a8 ec       	ldi	r26, 0xC8	; 200
     b12:	b2 ec       	ldi	r27, 0xC2	; 194
     b14:	88 83       	st	Y, r24
     b16:	99 83       	std	Y+1, r25	; 0x01
     b18:	aa 83       	std	Y+2, r26	; 0x02
     b1a:	bb 83       	std	Y+3, r27	; 0x03
     b1c:	80 91 b2 00 	lds	r24, 0x00B2
     b20:	8f 5f       	subi	r24, 0xFF	; 255
     b22:	80 93 b2 00 	sts	0x00B2, r24
     b26:	85 30       	cpi	r24, 0x05	; 5
     b28:	10 f0       	brcs	.+4      	; 0xb2e <checkTemp+0x80>
     b2a:	10 92 b2 00 	sts	0x00B2, r1
     b2e:	e0 91 b2 00 	lds	r30, 0x00B2
     b32:	f0 e0       	ldi	r31, 0x00	; 0
     b34:	a3 e0       	ldi	r26, 0x03	; 3
     b36:	ee 0f       	add	r30, r30
     b38:	ff 1f       	adc	r31, r31
     b3a:	aa 95       	dec	r26
     b3c:	e1 f7       	brne	.-8      	; 0xb36 <checkTemp+0x88>
     b3e:	e4 54       	subi	r30, 0x44	; 68
     b40:	ff 4f       	sbci	r31, 0xFF	; 255
     b42:	80 81       	ld	r24, Z
     b44:	88 23       	and	r24, r24
     b46:	99 f0       	breq	.+38     	; 0xb6e <checkTemp+0xc0>
     b48:	0e 94 ae 03 	call	0x75c	; 0x75c <OW_M_reset>
     b4c:	88 23       	and	r24, r24
     b4e:	79 f0       	breq	.+30     	; 0xb6e <checkTemp+0xc0>
     b50:	80 91 b2 00 	lds	r24, 0x00B2
     b54:	90 e0       	ldi	r25, 0x00	; 0
     b56:	f3 e0       	ldi	r31, 0x03	; 3
     b58:	88 0f       	add	r24, r24
     b5a:	99 1f       	adc	r25, r25
     b5c:	fa 95       	dec	r31
     b5e:	e1 f7       	brne	.-8      	; 0xb58 <checkTemp+0xaa>
     b60:	84 54       	subi	r24, 0x44	; 68
     b62:	9f 4f       	sbci	r25, 0xFF	; 255
     b64:	0e 94 da 04 	call	0x9b4	; 0x9b4 <OW_M_matchROM>
     b68:	84 e4       	ldi	r24, 0x44	; 68
     b6a:	0e 94 f4 03 	call	0x7e8	; 0x7e8 <OW_M_writeByte>
     b6e:	78 94       	sei
     b70:	df 91       	pop	r29
     b72:	cf 91       	pop	r28
     b74:	08 95       	ret

00000b76 <OW_M_startLoading>:
     b76:	0f 93       	push	r16
     b78:	1f 93       	push	r17
     b7a:	1a e0       	ldi	r17, 0x0A	; 10
     b7c:	01 e0       	ldi	r16, 0x01	; 1
     b7e:	00 93 b1 00 	sts	0x00B1, r16
     b82:	0e 94 57 05 	call	0xaae	; 0xaae <checkTemp>
     b86:	8f ef       	ldi	r24, 0xFF	; 255
     b88:	90 e7       	ldi	r25, 0x70	; 112
     b8a:	a2 e0       	ldi	r26, 0x02	; 2
     b8c:	81 50       	subi	r24, 0x01	; 1
     b8e:	90 40       	sbci	r25, 0x00	; 0
     b90:	a0 40       	sbci	r26, 0x00	; 0
     b92:	e1 f7       	brne	.-8      	; 0xb8c <OW_M_startLoading+0x16>
     b94:	00 c0       	rjmp	.+0      	; 0xb96 <OW_M_startLoading+0x20>
     b96:	00 00       	nop
     b98:	11 50       	subi	r17, 0x01	; 1
     b9a:	89 f7       	brne	.-30     	; 0xb7e <OW_M_startLoading+0x8>
     b9c:	1f 91       	pop	r17
     b9e:	0f 91       	pop	r16
     ba0:	08 95       	ret

00000ba2 <ow_slave_init>:
     ba2:	cf 93       	push	r28
     ba4:	df 93       	push	r29
     ba6:	c7 e9       	ldi	r28, 0x97	; 151
     ba8:	d0 e0       	ldi	r29, 0x00	; 0
     baa:	80 e0       	ldi	r24, 0x00	; 0
     bac:	99 91       	ld	r25, Y+
     bae:	89 27       	eor	r24, r25
     bb0:	0e 94 83 03 	call	0x706	; 0x706 <crc_table>
     bb4:	90 e0       	ldi	r25, 0x00	; 0
     bb6:	ce 39       	cpi	r28, 0x9E	; 158
     bb8:	d9 07       	cpc	r29, r25
     bba:	c1 f7       	brne	.-16     	; 0xbac <ow_slave_init+0xa>
     bbc:	80 93 9e 00 	sts	0x009E, r24
     bc0:	8b 98       	cbi	0x11, 3	; 17
     bc2:	88 e0       	ldi	r24, 0x08	; 8
     bc4:	85 bf       	out	0x35, r24	; 53
     bc6:	8b b7       	in	r24, 0x3b	; 59
     bc8:	80 68       	ori	r24, 0x80	; 128
     bca:	8b bf       	out	0x3b, r24	; 59
     bcc:	df 91       	pop	r29
     bce:	cf 91       	pop	r28
     bd0:	08 95       	ret

00000bd2 <OW_S_readBit>:
     bd2:	88 ee       	ldi	r24, 0xE8	; 232
     bd4:	93 e0       	ldi	r25, 0x03	; 3
     bd6:	02 c0       	rjmp	.+4      	; 0xbdc <OW_S_readBit+0xa>
     bd8:	01 97       	sbiw	r24, 0x01	; 1
     bda:	11 f0       	breq	.+4      	; 0xbe0 <OW_S_readBit+0xe>
     bdc:	83 99       	sbic	0x10, 3	; 16
     bde:	fc cf       	rjmp	.-8      	; 0xbd8 <OW_S_readBit+0x6>
     be0:	85 e3       	ldi	r24, 0x35	; 53
     be2:	8a 95       	dec	r24
     be4:	f1 f7       	brne	.-4      	; 0xbe2 <OW_S_readBit+0x10>
     be6:	00 00       	nop
     be8:	81 e0       	ldi	r24, 0x01	; 1
     bea:	83 9b       	sbis	0x10, 3	; 16
     bec:	80 e0       	ldi	r24, 0x00	; 0
     bee:	20 e0       	ldi	r18, 0x00	; 0
     bf0:	30 e0       	ldi	r19, 0x00	; 0
     bf2:	06 c0       	rjmp	.+12     	; 0xc00 <OW_S_readBit+0x2e>
     bf4:	2f 5f       	subi	r18, 0xFF	; 255
     bf6:	3f 4f       	sbci	r19, 0xFF	; 255
     bf8:	93 e0       	ldi	r25, 0x03	; 3
     bfa:	28 3e       	cpi	r18, 0xE8	; 232
     bfc:	39 07       	cpc	r19, r25
     bfe:	11 f0       	breq	.+4      	; 0xc04 <OW_S_readBit+0x32>
     c00:	83 9b       	sbis	0x10, 3	; 16
     c02:	f8 cf       	rjmp	.-16     	; 0xbf4 <OW_S_readBit+0x22>
     c04:	08 95       	ret

00000c06 <OW_S_readByte>:
     c06:	0f 93       	push	r16
     c08:	1f 93       	push	r17
     c0a:	88 ee       	ldi	r24, 0xE8	; 232
     c0c:	93 e0       	ldi	r25, 0x03	; 3
     c0e:	02 c0       	rjmp	.+4      	; 0xc14 <OW_S_readByte+0xe>
     c10:	01 97       	sbiw	r24, 0x01	; 1
     c12:	11 f0       	breq	.+4      	; 0xc18 <OW_S_readByte+0x12>
     c14:	83 9b       	sbis	0x10, 3	; 16
     c16:	fc cf       	rjmp	.-8      	; 0xc10 <OW_S_readByte+0xa>
     c18:	08 e0       	ldi	r16, 0x08	; 8
     c1a:	10 e0       	ldi	r17, 0x00	; 0
     c1c:	16 95       	lsr	r17
     c1e:	0e 94 e9 05 	call	0xbd2	; 0xbd2 <OW_S_readBit>
     c22:	81 11       	cpse	r24, r1
     c24:	10 68       	ori	r17, 0x80	; 128
     c26:	01 50       	subi	r16, 0x01	; 1
     c28:	c9 f7       	brne	.-14     	; 0xc1c <OW_S_readByte+0x16>
     c2a:	81 2f       	mov	r24, r17
     c2c:	1f 91       	pop	r17
     c2e:	0f 91       	pop	r16
     c30:	08 95       	ret

00000c32 <OW_S_writeBit>:
     c32:	28 ee       	ldi	r18, 0xE8	; 232
     c34:	33 e0       	ldi	r19, 0x03	; 3
     c36:	03 c0       	rjmp	.+6      	; 0xc3e <OW_S_writeBit+0xc>
     c38:	21 50       	subi	r18, 0x01	; 1
     c3a:	30 40       	sbci	r19, 0x00	; 0
     c3c:	11 f0       	breq	.+4      	; 0xc42 <OW_S_writeBit+0x10>
     c3e:	83 99       	sbic	0x10, 3	; 16
     c40:	fb cf       	rjmp	.-10     	; 0xc38 <OW_S_writeBit+0x6>
     c42:	8b 98       	cbi	0x11, 3	; 17
     c44:	88 23       	and	r24, r24
     c46:	09 f4       	brne	.+2      	; 0xc4a <OW_S_writeBit+0x18>
     c48:	8b 9a       	sbi	0x11, 3	; 17
     c4a:	80 ea       	ldi	r24, 0xA0	; 160
     c4c:	8a 95       	dec	r24
     c4e:	f1 f7       	brne	.-4      	; 0xc4c <OW_S_writeBit+0x1a>
     c50:	8b 98       	cbi	0x11, 3	; 17
     c52:	88 ee       	ldi	r24, 0xE8	; 232
     c54:	93 e0       	ldi	r25, 0x03	; 3
     c56:	02 c0       	rjmp	.+4      	; 0xc5c <OW_S_writeBit+0x2a>
     c58:	01 97       	sbiw	r24, 0x01	; 1
     c5a:	11 f0       	breq	.+4      	; 0xc60 <OW_S_writeBit+0x2e>
     c5c:	83 9b       	sbis	0x10, 3	; 16
     c5e:	fc cf       	rjmp	.-8      	; 0xc58 <OW_S_writeBit+0x26>
     c60:	08 95       	ret

00000c62 <OW_S_writeByte>:
     c62:	0f 93       	push	r16
     c64:	1f 93       	push	r17
     c66:	08 2f       	mov	r16, r24
     c68:	28 ee       	ldi	r18, 0xE8	; 232
     c6a:	33 e0       	ldi	r19, 0x03	; 3
     c6c:	03 c0       	rjmp	.+6      	; 0xc74 <OW_S_writeByte+0x12>
     c6e:	21 50       	subi	r18, 0x01	; 1
     c70:	30 40       	sbci	r19, 0x00	; 0
     c72:	11 f0       	breq	.+4      	; 0xc78 <OW_S_writeByte+0x16>
     c74:	83 9b       	sbis	0x10, 3	; 16
     c76:	fb cf       	rjmp	.-10     	; 0xc6e <OW_S_writeByte+0xc>
     c78:	18 e0       	ldi	r17, 0x08	; 8
     c7a:	80 2f       	mov	r24, r16
     c7c:	81 70       	andi	r24, 0x01	; 1
     c7e:	0e 94 19 06 	call	0xc32	; 0xc32 <OW_S_writeBit>
     c82:	06 95       	lsr	r16
     c84:	11 50       	subi	r17, 0x01	; 1
     c86:	c9 f7       	brne	.-14     	; 0xc7a <OW_S_writeByte+0x18>
     c88:	1f 91       	pop	r17
     c8a:	0f 91       	pop	r16
     c8c:	08 95       	ret

00000c8e <OW_S_action>:
     c8e:	cf 92       	push	r12
     c90:	df 92       	push	r13
     c92:	ef 92       	push	r14
     c94:	ff 92       	push	r15
     c96:	0f 93       	push	r16
     c98:	1f 93       	push	r17
     c9a:	cf 93       	push	r28
     c9c:	df 93       	push	r29
     c9e:	88 ee       	ldi	r24, 0xE8	; 232
     ca0:	93 e0       	ldi	r25, 0x03	; 3
     ca2:	02 c0       	rjmp	.+4      	; 0xca8 <OW_S_action+0x1a>
     ca4:	01 97       	sbiw	r24, 0x01	; 1
     ca6:	11 f0       	breq	.+4      	; 0xcac <OW_S_action+0x1e>
     ca8:	83 9b       	sbis	0x10, 3	; 16
     caa:	fc cf       	rjmp	.-8      	; 0xca4 <OW_S_action+0x16>
     cac:	80 e5       	ldi	r24, 0x50	; 80
     cae:	8a 95       	dec	r24
     cb0:	f1 f7       	brne	.-4      	; 0xcae <OW_S_action+0x20>
     cb2:	8b 9a       	sbi	0x11, 3	; 17
     cb4:	87 ec       	ldi	r24, 0xC7	; 199
     cb6:	90 e0       	ldi	r25, 0x00	; 0
     cb8:	01 97       	sbiw	r24, 0x01	; 1
     cba:	f1 f7       	brne	.-4      	; 0xcb8 <OW_S_action+0x2a>
     cbc:	00 c0       	rjmp	.+0      	; 0xcbe <OW_S_action+0x30>
     cbe:	00 00       	nop
     cc0:	8b 98       	cbi	0x11, 3	; 17
     cc2:	88 ee       	ldi	r24, 0xE8	; 232
     cc4:	93 e0       	ldi	r25, 0x03	; 3
     cc6:	02 c0       	rjmp	.+4      	; 0xccc <OW_S_action+0x3e>
     cc8:	01 97       	sbiw	r24, 0x01	; 1
     cca:	11 f0       	breq	.+4      	; 0xcd0 <OW_S_action+0x42>
     ccc:	83 9b       	sbis	0x10, 3	; 16
     cce:	fc cf       	rjmp	.-8      	; 0xcc8 <OW_S_action+0x3a>
     cd0:	0e 94 03 06 	call	0xc06	; 0xc06 <OW_S_readByte>
     cd4:	8c 3e       	cpi	r24, 0xEC	; 236
     cd6:	31 f0       	breq	.+12     	; 0xce4 <OW_S_action+0x56>
     cd8:	80 3f       	cpi	r24, 0xF0	; 240
     cda:	21 f0       	breq	.+8      	; 0xce4 <OW_S_action+0x56>
     cdc:	85 35       	cpi	r24, 0x55	; 85
     cde:	09 f0       	breq	.+2      	; 0xce2 <OW_S_action+0x54>
     ce0:	7a c0       	rjmp	.+244    	; 0xdd6 <OW_S_action+0x148>
     ce2:	27 c0       	rjmp	.+78     	; 0xd32 <OW_S_action+0xa4>
     ce4:	8c 3e       	cpi	r24, 0xEC	; 236
     ce6:	29 f4       	brne	.+10     	; 0xcf2 <OW_S_action+0x64>
     ce8:	80 91 b5 00 	lds	r24, 0x00B5
     cec:	88 23       	and	r24, r24
     cee:	09 f0       	breq	.+2      	; 0xcf2 <OW_S_action+0x64>
     cf0:	72 c0       	rjmp	.+228    	; 0xdd6 <OW_S_action+0x148>
     cf2:	10 e0       	ldi	r17, 0x00	; 0
     cf4:	ee 24       	eor	r14, r14
     cf6:	e3 94       	inc	r14
     cf8:	e1 2f       	mov	r30, r17
     cfa:	f0 e0       	ldi	r31, 0x00	; 0
     cfc:	e9 56       	subi	r30, 0x69	; 105
     cfe:	ff 4f       	sbci	r31, 0xFF	; 255
     d00:	c0 80       	ld	r12, Z
     d02:	08 e0       	ldi	r16, 0x08	; 8
     d04:	ff 24       	eor	r15, r15
     d06:	f3 94       	inc	r15
     d08:	fc 20       	and	r15, r12
     d0a:	8f 2d       	mov	r24, r15
     d0c:	0e 94 19 06 	call	0xc32	; 0xc32 <OW_S_writeBit>
     d10:	8f 2d       	mov	r24, r15
     d12:	8e 25       	eor	r24, r14
     d14:	0e 94 19 06 	call	0xc32	; 0xc32 <OW_S_writeBit>
     d18:	0e 94 e9 05 	call	0xbd2	; 0xbd2 <OW_S_readBit>
     d1c:	8f 15       	cp	r24, r15
     d1e:	09 f0       	breq	.+2      	; 0xd22 <OW_S_action+0x94>
     d20:	5a c0       	rjmp	.+180    	; 0xdd6 <OW_S_action+0x148>
     d22:	01 50       	subi	r16, 0x01	; 1
     d24:	11 f0       	breq	.+4      	; 0xd2a <OW_S_action+0x9c>
     d26:	c6 94       	lsr	r12
     d28:	ed cf       	rjmp	.-38     	; 0xd04 <OW_S_action+0x76>
     d2a:	1f 5f       	subi	r17, 0xFF	; 255
     d2c:	18 30       	cpi	r17, 0x08	; 8
     d2e:	21 f7       	brne	.-56     	; 0xcf8 <OW_S_action+0x6a>
     d30:	52 c0       	rjmp	.+164    	; 0xdd6 <OW_S_action+0x148>
     d32:	c7 e9       	ldi	r28, 0x97	; 151
     d34:	d0 e0       	ldi	r29, 0x00	; 0
     d36:	0e 94 03 06 	call	0xc06	; 0xc06 <OW_S_readByte>
     d3a:	99 91       	ld	r25, Y+
     d3c:	89 17       	cp	r24, r25
     d3e:	09 f0       	breq	.+2      	; 0xd42 <OW_S_action+0xb4>
     d40:	4a c0       	rjmp	.+148    	; 0xdd6 <OW_S_action+0x148>
     d42:	90 e0       	ldi	r25, 0x00	; 0
     d44:	cf 39       	cpi	r28, 0x9F	; 159
     d46:	d9 07       	cpc	r29, r25
     d48:	b1 f7       	brne	.-20     	; 0xd36 <OW_S_action+0xa8>
     d4a:	0e 94 03 06 	call	0xc06	; 0xc06 <OW_S_readByte>
     d4e:	80 3a       	cpi	r24, 0xA0	; 160
     d50:	09 f0       	breq	.+2      	; 0xd54 <OW_S_action+0xc6>
     d52:	41 c0       	rjmp	.+130    	; 0xdd6 <OW_S_action+0x148>
     d54:	c2 e8       	ldi	r28, 0x82	; 130
     d56:	d0 e0       	ldi	r29, 0x00	; 0
     d58:	10 e0       	ldi	r17, 0x00	; 0
     d5a:	c9 90       	ld	r12, Y+
     d5c:	d9 90       	ld	r13, Y+
     d5e:	e9 90       	ld	r14, Y+
     d60:	f9 90       	ld	r15, Y+
     d62:	c7 01       	movw	r24, r14
     d64:	b6 01       	movw	r22, r12
     d66:	0e 94 ce 0a 	call	0x159c	; 0x159c <ceil>
     d6a:	0e 94 ea 0a 	call	0x15d4	; 0x15d4 <__fixunssfsi>
     d6e:	06 2f       	mov	r16, r22
     d70:	70 e0       	ldi	r23, 0x00	; 0
     d72:	88 27       	eor	r24, r24
     d74:	77 fd       	sbrc	r23, 7
     d76:	80 95       	com	r24
     d78:	98 2f       	mov	r25, r24
     d7a:	0e 94 18 0b 	call	0x1630	; 0x1630 <__floatsisf>
     d7e:	9b 01       	movw	r18, r22
     d80:	ac 01       	movw	r20, r24
     d82:	c7 01       	movw	r24, r14
     d84:	b6 01       	movw	r22, r12
     d86:	0e 94 69 0a 	call	0x14d2	; 0x14d2 <__subsf3>
     d8a:	20 e0       	ldi	r18, 0x00	; 0
     d8c:	30 e0       	ldi	r19, 0x00	; 0
     d8e:	48 ec       	ldi	r20, 0xC8	; 200
     d90:	52 e4       	ldi	r21, 0x42	; 66
     d92:	0e 94 1f 0c 	call	0x183e	; 0x183e <__mulsf3>
     d96:	0e 94 53 0b 	call	0x16a6	; 0x16a6 <floor>
     d9a:	0e 94 ea 0a 	call	0x15d4	; 0x15d4 <__fixunssfsi>
     d9e:	f6 2e       	mov	r15, r22
     da0:	80 2f       	mov	r24, r16
     da2:	0e 94 31 06 	call	0xc62	; 0xc62 <OW_S_writeByte>
     da6:	80 2f       	mov	r24, r16
     da8:	81 27       	eor	r24, r17
     daa:	0e 94 83 03 	call	0x706	; 0x706 <crc_table>
     dae:	18 2f       	mov	r17, r24
     db0:	8f 2d       	mov	r24, r15
     db2:	0e 94 31 06 	call	0xc62	; 0xc62 <OW_S_writeByte>
     db6:	8f 2d       	mov	r24, r15
     db8:	81 27       	eor	r24, r17
     dba:	0e 94 83 03 	call	0x706	; 0x706 <crc_table>
     dbe:	18 2f       	mov	r17, r24
     dc0:	80 e0       	ldi	r24, 0x00	; 0
     dc2:	c6 39       	cpi	r28, 0x96	; 150
     dc4:	d8 07       	cpc	r29, r24
     dc6:	49 f6       	brne	.-110    	; 0xd5a <OW_S_action+0xcc>
     dc8:	81 2f       	mov	r24, r17
     dca:	0e 94 31 06 	call	0xc62	; 0xc62 <OW_S_writeByte>
     dce:	10 92 b4 00 	sts	0x00B4, r1
     dd2:	10 92 b3 00 	sts	0x00B3, r1
     dd6:	df 91       	pop	r29
     dd8:	cf 91       	pop	r28
     dda:	1f 91       	pop	r17
     ddc:	0f 91       	pop	r16
     dde:	ff 90       	pop	r15
     de0:	ef 90       	pop	r14
     de2:	df 90       	pop	r13
     de4:	cf 90       	pop	r12
     de6:	08 95       	ret

00000de8 <__vector_2>:
     de8:	1f 92       	push	r1
     dea:	0f 92       	push	r0
     dec:	0f b6       	in	r0, 0x3f	; 63
     dee:	0f 92       	push	r0
     df0:	11 24       	eor	r1, r1
     df2:	8f 93       	push	r24
     df4:	05 b6       	in	r0, 0x35	; 53
     df6:	02 fe       	sbrs	r0, 2
     df8:	04 c0       	rjmp	.+8      	; 0xe02 <__vector_2+0x1a>
     dfa:	10 92 9f 00 	sts	0x009F, r1
     dfe:	88 e0       	ldi	r24, 0x08	; 8
     e00:	09 c0       	rjmp	.+18     	; 0xe14 <__vector_2+0x2c>
     e02:	8d ec       	ldi	r24, 0xCD	; 205
     e04:	82 bf       	out	0x32, r24	; 50
     e06:	81 e0       	ldi	r24, 0x01	; 1
     e08:	80 93 9f 00 	sts	0x009F, r24
     e0c:	89 b7       	in	r24, 0x39	; 57
     e0e:	81 60       	ori	r24, 0x01	; 1
     e10:	89 bf       	out	0x39, r24	; 57
     e12:	8c e0       	ldi	r24, 0x0C	; 12
     e14:	85 bf       	out	0x35, r24	; 53
     e16:	8f 91       	pop	r24
     e18:	0f 90       	pop	r0
     e1a:	0f be       	out	0x3f, r0	; 63
     e1c:	0f 90       	pop	r0
     e1e:	1f 90       	pop	r1
     e20:	18 95       	reti

00000e22 <__vector_9>:
     e22:	1f 92       	push	r1
     e24:	0f 92       	push	r0
     e26:	0f b6       	in	r0, 0x3f	; 63
     e28:	0f 92       	push	r0
     e2a:	11 24       	eor	r1, r1
     e2c:	2f 93       	push	r18
     e2e:	3f 93       	push	r19
     e30:	4f 93       	push	r20
     e32:	5f 93       	push	r21
     e34:	6f 93       	push	r22
     e36:	7f 93       	push	r23
     e38:	8f 93       	push	r24
     e3a:	9f 93       	push	r25
     e3c:	af 93       	push	r26
     e3e:	bf 93       	push	r27
     e40:	ef 93       	push	r30
     e42:	ff 93       	push	r31
     e44:	80 91 a0 00 	lds	r24, 0x00A0
     e48:	88 23       	and	r24, r24
     e4a:	d9 f4       	brne	.+54     	; 0xe82 <__vector_9+0x60>
     e4c:	80 91 b3 00 	lds	r24, 0x00B3
     e50:	90 91 b4 00 	lds	r25, 0x00B4
     e54:	2a ee       	ldi	r18, 0xEA	; 234
     e56:	80 36       	cpi	r24, 0x60	; 96
     e58:	92 07       	cpc	r25, r18
     e5a:	50 f4       	brcc	.+20     	; 0xe70 <__vector_9+0x4e>
     e5c:	20 91 b5 00 	lds	r18, 0x00B5
     e60:	22 23       	and	r18, r18
     e62:	31 f4       	brne	.+12     	; 0xe70 <__vector_9+0x4e>
     e64:	01 96       	adiw	r24, 0x01	; 1
     e66:	90 93 b4 00 	sts	0x00B4, r25
     e6a:	80 93 b3 00 	sts	0x00B3, r24
     e6e:	09 c0       	rjmp	.+18     	; 0xe82 <__vector_9+0x60>
     e70:	80 91 9f 00 	lds	r24, 0x009F
     e74:	88 23       	and	r24, r24
     e76:	29 f0       	breq	.+10     	; 0xe82 <__vector_9+0x60>
     e78:	10 92 9f 00 	sts	0x009F, r1
     e7c:	15 ba       	out	0x15, r1	; 21
     e7e:	0e 94 47 06 	call	0xc8e	; 0xc8e <OW_S_action>
     e82:	ff 91       	pop	r31
     e84:	ef 91       	pop	r30
     e86:	bf 91       	pop	r27
     e88:	af 91       	pop	r26
     e8a:	9f 91       	pop	r25
     e8c:	8f 91       	pop	r24
     e8e:	7f 91       	pop	r23
     e90:	6f 91       	pop	r22
     e92:	5f 91       	pop	r21
     e94:	4f 91       	pop	r20
     e96:	3f 91       	pop	r19
     e98:	2f 91       	pop	r18
     e9a:	0f 90       	pop	r0
     e9c:	0f be       	out	0x3f, r0	; 63
     e9e:	0f 90       	pop	r0
     ea0:	1f 90       	pop	r1
     ea2:	18 95       	reti

00000ea4 <btn_sel_handler>:
     ea4:	1f 93       	push	r17
     ea6:	18 2f       	mov	r17, r24
     ea8:	80 91 a0 00 	lds	r24, 0x00A0
     eac:	8a 30       	cpi	r24, 0x0A	; 10
     eae:	11 f0       	breq	.+4      	; 0xeb4 <btn_sel_handler+0x10>
     eb0:	0e 94 6a 01 	call	0x2d4	; 0x2d4 <clearReleValues>
     eb4:	11 23       	and	r17, r17
     eb6:	09 f4       	brne	.+2      	; 0xeba <btn_sel_handler+0x16>
     eb8:	4c c0       	rjmp	.+152    	; 0xf52 <btn_sel_handler+0xae>
     eba:	80 91 bb 00 	lds	r24, 0x00BB
     ebe:	88 23       	and	r24, r24
     ec0:	09 f0       	breq	.+2      	; 0xec4 <btn_sel_handler+0x20>
     ec2:	72 c0       	rjmp	.+228    	; 0xfa8 <btn_sel_handler+0x104>
     ec4:	81 e0       	ldi	r24, 0x01	; 1
     ec6:	80 93 bb 00 	sts	0x00BB, r24
     eca:	80 91 a0 00 	lds	r24, 0x00A0
     ece:	88 23       	and	r24, r24
     ed0:	b1 f4       	brne	.+44     	; 0xefe <btn_sel_handler+0x5a>
     ed2:	84 e1       	ldi	r24, 0x14	; 20
     ed4:	80 93 a0 00 	sts	0x00A0, r24
     ed8:	e4 ee       	ldi	r30, 0xE4	; 228
     eda:	f0 e0       	ldi	r31, 0x00	; 0
     edc:	80 e1       	ldi	r24, 0x10	; 16
     ede:	81 93       	st	Z+, r24
     ee0:	90 e0       	ldi	r25, 0x00	; 0
     ee2:	e3 3f       	cpi	r30, 0xF3	; 243
     ee4:	f9 07       	cpc	r31, r25
     ee6:	d9 f7       	brne	.-10     	; 0xede <btn_sel_handler+0x3a>
     ee8:	0e 94 7e 04 	call	0x8fc	; 0x8fc <OW_M_scan_devs>
     eec:	0e 94 bb 05 	call	0xb76	; 0xb76 <OW_M_startLoading>
     ef0:	85 e1       	ldi	r24, 0x15	; 21
     ef2:	80 93 a0 00 	sts	0x00A0, r24
     ef6:	10 92 60 00 	sts	0x0060, r1
     efa:	85 e0       	ldi	r24, 0x05	; 5
     efc:	27 c0       	rjmp	.+78     	; 0xf4c <btn_sel_handler+0xa8>
     efe:	10 92 a0 00 	sts	0x00A0, r1
     f02:	8f ef       	ldi	r24, 0xFF	; 255
     f04:	9f ef       	ldi	r25, 0xFF	; 255
     f06:	0e 94 8d 00 	call	0x11a	; 0x11a <sel_query_sel>
     f0a:	8f ef       	ldi	r24, 0xFF	; 255
     f0c:	80 93 60 00 	sts	0x0060, r24
     f10:	80 93 61 00 	sts	0x0061, r24
     f14:	80 93 62 00 	sts	0x0062, r24
     f18:	10 92 a5 00 	sts	0x00A5, r1
     f1c:	10 92 a4 00 	sts	0x00A4, r1
     f20:	10 92 a3 00 	sts	0x00A3, r1
     f24:	e4 ee       	ldi	r30, 0xE4	; 228
     f26:	f0 e0       	ldi	r31, 0x00	; 0
     f28:	80 e1       	ldi	r24, 0x10	; 16
     f2a:	81 93       	st	Z+, r24
     f2c:	a0 e0       	ldi	r26, 0x00	; 0
     f2e:	e3 3f       	cpi	r30, 0xF3	; 243
     f30:	fa 07       	cpc	r31, r26
     f32:	d9 f7       	brne	.-10     	; 0xf2a <btn_sel_handler+0x86>
     f34:	0e 94 75 01 	call	0x2ea	; 0x2ea <save_props>
     f38:	8f ef       	ldi	r24, 0xFF	; 255
     f3a:	99 e6       	ldi	r25, 0x69	; 105
     f3c:	a8 e1       	ldi	r26, 0x18	; 24
     f3e:	81 50       	subi	r24, 0x01	; 1
     f40:	90 40       	sbci	r25, 0x00	; 0
     f42:	a0 40       	sbci	r26, 0x00	; 0
     f44:	e1 f7       	brne	.-8      	; 0xf3e <btn_sel_handler+0x9a>
     f46:	00 c0       	rjmp	.+0      	; 0xf48 <btn_sel_handler+0xa4>
     f48:	00 00       	nop
     f4a:	89 e1       	ldi	r24, 0x19	; 25
     f4c:	80 93 96 00 	sts	0x0096, r24
     f50:	2b c0       	rjmp	.+86     	; 0xfa8 <btn_sel_handler+0x104>
     f52:	80 91 a0 00 	lds	r24, 0x00A0
     f56:	8a 30       	cpi	r24, 0x0A	; 10
     f58:	61 f0       	breq	.+24     	; 0xf72 <btn_sel_handler+0xce>
     f5a:	85 31       	cpi	r24, 0x15	; 21
     f5c:	b1 f0       	breq	.+44     	; 0xf8a <btn_sel_handler+0xe6>
     f5e:	88 23       	and	r24, r24
     f60:	19 f5       	brne	.+70     	; 0xfa8 <btn_sel_handler+0x104>
     f62:	8a e0       	ldi	r24, 0x0A	; 10
     f64:	80 93 a0 00 	sts	0x00A0, r24
     f68:	80 e0       	ldi	r24, 0x00	; 0
     f6a:	90 e0       	ldi	r25, 0x00	; 0
     f6c:	0e 94 8d 00 	call	0x11a	; 0x11a <sel_query_sel>
     f70:	1b c0       	rjmp	.+54     	; 0xfa8 <btn_sel_handler+0x104>
     f72:	80 91 b7 00 	lds	r24, 0x00B7
     f76:	8f 5f       	subi	r24, 0xFF	; 255
     f78:	80 93 b7 00 	sts	0x00B7, r24
     f7c:	84 30       	cpi	r24, 0x04	; 4
     f7e:	10 f0       	brcs	.+4      	; 0xf84 <btn_sel_handler+0xe0>
     f80:	10 92 b7 00 	sts	0x00B7, r1
     f84:	0e 94 ae 00 	call	0x15c	; 0x15c <redraw_query_led>
     f88:	0f c0       	rjmp	.+30     	; 0xfa8 <btn_sel_handler+0x104>
     f8a:	81 e0       	ldi	r24, 0x01	; 1
     f8c:	90 e0       	ldi	r25, 0x00	; 0
     f8e:	20 91 a3 00 	lds	r18, 0x00A3
     f92:	30 91 a4 00 	lds	r19, 0x00A4
     f96:	21 15       	cp	r18, r1
     f98:	31 05       	cpc	r19, r1
     f9a:	11 f0       	breq	.+4      	; 0xfa0 <btn_sel_handler+0xfc>
     f9c:	80 e0       	ldi	r24, 0x00	; 0
     f9e:	90 e0       	ldi	r25, 0x00	; 0
     fa0:	90 93 a4 00 	sts	0x00A4, r25
     fa4:	80 93 a3 00 	sts	0x00A3, r24
     fa8:	1f 91       	pop	r17
     faa:	08 95       	ret

00000fac <btn_up_handler>:
     fac:	80 91 60 00 	lds	r24, 0x0060
     fb0:	90 91 a0 00 	lds	r25, 0x00A0
     fb4:	9a 30       	cpi	r25, 0x0A	; 10
     fb6:	c1 f0       	breq	.+48     	; 0xfe8 <btn_up_handler+0x3c>
     fb8:	95 31       	cpi	r25, 0x15	; 21
     fba:	09 f4       	brne	.+2      	; 0xfbe <btn_up_handler+0x12>
     fbc:	89 c0       	rjmp	.+274    	; 0x10d0 <btn_up_handler+0x124>
     fbe:	99 23       	and	r25, r25
     fc0:	09 f0       	breq	.+2      	; 0xfc4 <btn_up_handler+0x18>
     fc2:	9f c0       	rjmp	.+318    	; 0x1102 <btn_up_handler+0x156>
     fc4:	80 91 b9 00 	lds	r24, 0x00B9
     fc8:	88 23       	and	r24, r24
     fca:	09 f4       	brne	.+2      	; 0xfce <btn_up_handler+0x22>
     fcc:	9a c0       	rjmp	.+308    	; 0x1102 <btn_up_handler+0x156>
     fce:	80 91 ba 00 	lds	r24, 0x00BA
     fd2:	88 23       	and	r24, r24
     fd4:	09 f4       	brne	.+2      	; 0xfd8 <btn_up_handler+0x2c>
     fd6:	95 c0       	rjmp	.+298    	; 0x1102 <btn_up_handler+0x156>
     fd8:	81 e0       	ldi	r24, 0x01	; 1
     fda:	90 91 b5 00 	lds	r25, 0x00B5
     fde:	91 11       	cpse	r25, r1
     fe0:	80 e0       	ldi	r24, 0x00	; 0
     fe2:	80 93 b5 00 	sts	0x00B5, r24
     fe6:	08 95       	ret
     fe8:	80 91 b7 00 	lds	r24, 0x00B7
     fec:	81 30       	cpi	r24, 0x01	; 1
     fee:	b9 f0       	breq	.+46     	; 0x101e <btn_up_handler+0x72>
     ff0:	81 30       	cpi	r24, 0x01	; 1
     ff2:	30 f0       	brcs	.+12     	; 0x1000 <btn_up_handler+0x54>
     ff4:	82 30       	cpi	r24, 0x02	; 2
     ff6:	81 f1       	breq	.+96     	; 0x1058 <btn_up_handler+0xac>
     ff8:	83 30       	cpi	r24, 0x03	; 3
     ffa:	09 f0       	breq	.+2      	; 0xffe <btn_up_handler+0x52>
     ffc:	82 c0       	rjmp	.+260    	; 0x1102 <btn_up_handler+0x156>
     ffe:	49 c0       	rjmp	.+146    	; 0x1092 <btn_up_handler+0xe6>
    1000:	80 91 b6 00 	lds	r24, 0x00B6
    1004:	88 23       	and	r24, r24
    1006:	11 f4       	brne	.+4      	; 0x100c <btn_up_handler+0x60>
    1008:	85 e0       	ldi	r24, 0x05	; 5
    100a:	01 c0       	rjmp	.+2      	; 0x100e <btn_up_handler+0x62>
    100c:	81 50       	subi	r24, 0x01	; 1
    100e:	80 93 b6 00 	sts	0x00B6, r24
    1012:	80 91 b6 00 	lds	r24, 0x00B6
    1016:	90 e0       	ldi	r25, 0x00	; 0
    1018:	0e 94 8d 00 	call	0x11a	; 0x11a <sel_query_sel>
    101c:	08 95       	ret
    101e:	80 91 b6 00 	lds	r24, 0x00B6
    1022:	90 e0       	ldi	r25, 0x00	; 0
    1024:	fc 01       	movw	r30, r24
    1026:	ee 0f       	add	r30, r30
    1028:	ff 1f       	adc	r31, r31
    102a:	e8 0f       	add	r30, r24
    102c:	f9 1f       	adc	r31, r25
    102e:	ee 0f       	add	r30, r30
    1030:	ff 1f       	adc	r31, r31
    1032:	ed 50       	subi	r30, 0x0D	; 13
    1034:	ff 4f       	sbci	r31, 0xFF	; 255
    1036:	20 81       	ld	r18, Z
    1038:	22 23       	and	r18, r18
    103a:	11 f0       	breq	.+4      	; 0x1040 <btn_up_handler+0x94>
    103c:	21 50       	subi	r18, 0x01	; 1
    103e:	01 c0       	rjmp	.+2      	; 0x1042 <btn_up_handler+0x96>
    1040:	24 e0       	ldi	r18, 0x04	; 4
    1042:	fc 01       	movw	r30, r24
    1044:	ee 0f       	add	r30, r30
    1046:	ff 1f       	adc	r31, r31
    1048:	e8 0f       	add	r30, r24
    104a:	f9 1f       	adc	r31, r25
    104c:	ee 0f       	add	r30, r30
    104e:	ff 1f       	adc	r31, r31
    1050:	ed 50       	subi	r30, 0x0D	; 13
    1052:	ff 4f       	sbci	r31, 0xFF	; 255
    1054:	20 83       	st	Z, r18
    1056:	39 c0       	rjmp	.+114    	; 0x10ca <btn_up_handler+0x11e>
    1058:	80 91 b6 00 	lds	r24, 0x00B6
    105c:	90 e0       	ldi	r25, 0x00	; 0
    105e:	fc 01       	movw	r30, r24
    1060:	ee 0f       	add	r30, r30
    1062:	ff 1f       	adc	r31, r31
    1064:	e8 0f       	add	r30, r24
    1066:	f9 1f       	adc	r31, r25
    1068:	ee 0f       	add	r30, r30
    106a:	ff 1f       	adc	r31, r31
    106c:	ed 50       	subi	r30, 0x0D	; 13
    106e:	ff 4f       	sbci	r31, 0xFF	; 255
    1070:	21 81       	ldd	r18, Z+1	; 0x01
    1072:	22 30       	cpi	r18, 0x02	; 2
    1074:	11 f0       	breq	.+4      	; 0x107a <btn_up_handler+0xce>
    1076:	2f 5f       	subi	r18, 0xFF	; 255
    1078:	01 c0       	rjmp	.+2      	; 0x107c <btn_up_handler+0xd0>
    107a:	20 e0       	ldi	r18, 0x00	; 0
    107c:	fc 01       	movw	r30, r24
    107e:	ee 0f       	add	r30, r30
    1080:	ff 1f       	adc	r31, r31
    1082:	e8 0f       	add	r30, r24
    1084:	f9 1f       	adc	r31, r25
    1086:	ee 0f       	add	r30, r30
    1088:	ff 1f       	adc	r31, r31
    108a:	ed 50       	subi	r30, 0x0D	; 13
    108c:	ff 4f       	sbci	r31, 0xFF	; 255
    108e:	21 83       	std	Z+1, r18	; 0x01
    1090:	1c c0       	rjmp	.+56     	; 0x10ca <btn_up_handler+0x11e>
    1092:	80 91 b6 00 	lds	r24, 0x00B6
    1096:	90 e0       	ldi	r25, 0x00	; 0
    1098:	fc 01       	movw	r30, r24
    109a:	ee 0f       	add	r30, r30
    109c:	ff 1f       	adc	r31, r31
    109e:	e8 0f       	add	r30, r24
    10a0:	f9 1f       	adc	r31, r25
    10a2:	ee 0f       	add	r30, r30
    10a4:	ff 1f       	adc	r31, r31
    10a6:	ed 50       	subi	r30, 0x0D	; 13
    10a8:	ff 4f       	sbci	r31, 0xFF	; 255
    10aa:	22 81       	ldd	r18, Z+2	; 0x02
    10ac:	2a 35       	cpi	r18, 0x5A	; 90
    10ae:	11 f0       	breq	.+4      	; 0x10b4 <btn_up_handler+0x108>
    10b0:	2f 5f       	subi	r18, 0xFF	; 255
    10b2:	01 c0       	rjmp	.+2      	; 0x10b6 <btn_up_handler+0x10a>
    10b4:	2a e0       	ldi	r18, 0x0A	; 10
    10b6:	fc 01       	movw	r30, r24
    10b8:	ee 0f       	add	r30, r30
    10ba:	ff 1f       	adc	r31, r31
    10bc:	e8 0f       	add	r30, r24
    10be:	f9 1f       	adc	r31, r25
    10c0:	ee 0f       	add	r30, r30
    10c2:	ff 1f       	adc	r31, r31
    10c4:	ed 50       	subi	r30, 0x0D	; 13
    10c6:	ff 4f       	sbci	r31, 0xFF	; 255
    10c8:	22 83       	std	Z+2, r18	; 0x02
    10ca:	0e 94 ae 00 	call	0x15c	; 0x15c <redraw_query_led>
    10ce:	08 95       	ret
    10d0:	88 23       	and	r24, r24
    10d2:	11 f4       	brne	.+4      	; 0x10d8 <btn_up_handler+0x12c>
    10d4:	94 e0       	ldi	r25, 0x04	; 4
    10d6:	02 c0       	rjmp	.+4      	; 0x10dc <btn_up_handler+0x130>
    10d8:	98 2f       	mov	r25, r24
    10da:	91 50       	subi	r25, 0x01	; 1
    10dc:	90 93 60 00 	sts	0x0060, r25
    10e0:	10 92 a2 00 	sts	0x00A2, r1
    10e4:	10 92 a1 00 	sts	0x00A1, r1
    10e8:	20 91 a3 00 	lds	r18, 0x00A3
    10ec:	30 91 a4 00 	lds	r19, 0x00A4
    10f0:	21 15       	cp	r18, r1
    10f2:	31 05       	cpc	r19, r1
    10f4:	31 f0       	breq	.+12     	; 0x1102 <btn_up_handler+0x156>
    10f6:	60 91 60 00 	lds	r22, 0x0060
    10fa:	90 e0       	ldi	r25, 0x00	; 0
    10fc:	70 e0       	ldi	r23, 0x00	; 0
    10fe:	0e 94 49 00 	call	0x92	; 0x92 <change_temp_order>
    1102:	08 95       	ret

00001104 <btn_down_handler>:
    1104:	80 91 60 00 	lds	r24, 0x0060
    1108:	90 91 a0 00 	lds	r25, 0x00A0
    110c:	9a 30       	cpi	r25, 0x0A	; 10
    110e:	c1 f0       	breq	.+48     	; 0x1140 <btn_down_handler+0x3c>
    1110:	95 31       	cpi	r25, 0x15	; 21
    1112:	09 f4       	brne	.+2      	; 0x1116 <btn_down_handler+0x12>
    1114:	8a c0       	rjmp	.+276    	; 0x122a <btn_down_handler+0x126>
    1116:	99 23       	and	r25, r25
    1118:	09 f0       	breq	.+2      	; 0x111c <btn_down_handler+0x18>
    111a:	a1 c0       	rjmp	.+322    	; 0x125e <btn_down_handler+0x15a>
    111c:	80 91 b9 00 	lds	r24, 0x00B9
    1120:	88 23       	and	r24, r24
    1122:	09 f4       	brne	.+2      	; 0x1126 <btn_down_handler+0x22>
    1124:	9c c0       	rjmp	.+312    	; 0x125e <btn_down_handler+0x15a>
    1126:	80 91 ba 00 	lds	r24, 0x00BA
    112a:	88 23       	and	r24, r24
    112c:	09 f4       	brne	.+2      	; 0x1130 <btn_down_handler+0x2c>
    112e:	97 c0       	rjmp	.+302    	; 0x125e <btn_down_handler+0x15a>
    1130:	81 e0       	ldi	r24, 0x01	; 1
    1132:	90 91 b5 00 	lds	r25, 0x00B5
    1136:	91 11       	cpse	r25, r1
    1138:	80 e0       	ldi	r24, 0x00	; 0
    113a:	80 93 b5 00 	sts	0x00B5, r24
    113e:	08 95       	ret
    1140:	80 91 b7 00 	lds	r24, 0x00B7
    1144:	81 30       	cpi	r24, 0x01	; 1
    1146:	c1 f0       	breq	.+48     	; 0x1178 <btn_down_handler+0x74>
    1148:	81 30       	cpi	r24, 0x01	; 1
    114a:	30 f0       	brcs	.+12     	; 0x1158 <btn_down_handler+0x54>
    114c:	82 30       	cpi	r24, 0x02	; 2
    114e:	89 f1       	breq	.+98     	; 0x11b2 <btn_down_handler+0xae>
    1150:	83 30       	cpi	r24, 0x03	; 3
    1152:	09 f0       	breq	.+2      	; 0x1156 <btn_down_handler+0x52>
    1154:	84 c0       	rjmp	.+264    	; 0x125e <btn_down_handler+0x15a>
    1156:	4a c0       	rjmp	.+148    	; 0x11ec <btn_down_handler+0xe8>
    1158:	80 91 b6 00 	lds	r24, 0x00B6
    115c:	85 30       	cpi	r24, 0x05	; 5
    115e:	19 f4       	brne	.+6      	; 0x1166 <btn_down_handler+0x62>
    1160:	10 92 b6 00 	sts	0x00B6, r1
    1164:	03 c0       	rjmp	.+6      	; 0x116c <btn_down_handler+0x68>
    1166:	8f 5f       	subi	r24, 0xFF	; 255
    1168:	80 93 b6 00 	sts	0x00B6, r24
    116c:	80 91 b6 00 	lds	r24, 0x00B6
    1170:	90 e0       	ldi	r25, 0x00	; 0
    1172:	0e 94 8d 00 	call	0x11a	; 0x11a <sel_query_sel>
    1176:	08 95       	ret
    1178:	80 91 b6 00 	lds	r24, 0x00B6
    117c:	90 e0       	ldi	r25, 0x00	; 0
    117e:	fc 01       	movw	r30, r24
    1180:	ee 0f       	add	r30, r30
    1182:	ff 1f       	adc	r31, r31
    1184:	e8 0f       	add	r30, r24
    1186:	f9 1f       	adc	r31, r25
    1188:	ee 0f       	add	r30, r30
    118a:	ff 1f       	adc	r31, r31
    118c:	ed 50       	subi	r30, 0x0D	; 13
    118e:	ff 4f       	sbci	r31, 0xFF	; 255
    1190:	20 81       	ld	r18, Z
    1192:	24 30       	cpi	r18, 0x04	; 4
    1194:	11 f0       	breq	.+4      	; 0x119a <btn_down_handler+0x96>
    1196:	2f 5f       	subi	r18, 0xFF	; 255
    1198:	01 c0       	rjmp	.+2      	; 0x119c <btn_down_handler+0x98>
    119a:	20 e0       	ldi	r18, 0x00	; 0
    119c:	fc 01       	movw	r30, r24
    119e:	ee 0f       	add	r30, r30
    11a0:	ff 1f       	adc	r31, r31
    11a2:	e8 0f       	add	r30, r24
    11a4:	f9 1f       	adc	r31, r25
    11a6:	ee 0f       	add	r30, r30
    11a8:	ff 1f       	adc	r31, r31
    11aa:	ed 50       	subi	r30, 0x0D	; 13
    11ac:	ff 4f       	sbci	r31, 0xFF	; 255
    11ae:	20 83       	st	Z, r18
    11b0:	39 c0       	rjmp	.+114    	; 0x1224 <btn_down_handler+0x120>
    11b2:	80 91 b6 00 	lds	r24, 0x00B6
    11b6:	90 e0       	ldi	r25, 0x00	; 0
    11b8:	fc 01       	movw	r30, r24
    11ba:	ee 0f       	add	r30, r30
    11bc:	ff 1f       	adc	r31, r31
    11be:	e8 0f       	add	r30, r24
    11c0:	f9 1f       	adc	r31, r25
    11c2:	ee 0f       	add	r30, r30
    11c4:	ff 1f       	adc	r31, r31
    11c6:	ed 50       	subi	r30, 0x0D	; 13
    11c8:	ff 4f       	sbci	r31, 0xFF	; 255
    11ca:	21 81       	ldd	r18, Z+1	; 0x01
    11cc:	22 23       	and	r18, r18
    11ce:	11 f0       	breq	.+4      	; 0x11d4 <btn_down_handler+0xd0>
    11d0:	21 50       	subi	r18, 0x01	; 1
    11d2:	01 c0       	rjmp	.+2      	; 0x11d6 <btn_down_handler+0xd2>
    11d4:	22 e0       	ldi	r18, 0x02	; 2
    11d6:	fc 01       	movw	r30, r24
    11d8:	ee 0f       	add	r30, r30
    11da:	ff 1f       	adc	r31, r31
    11dc:	e8 0f       	add	r30, r24
    11de:	f9 1f       	adc	r31, r25
    11e0:	ee 0f       	add	r30, r30
    11e2:	ff 1f       	adc	r31, r31
    11e4:	ed 50       	subi	r30, 0x0D	; 13
    11e6:	ff 4f       	sbci	r31, 0xFF	; 255
    11e8:	21 83       	std	Z+1, r18	; 0x01
    11ea:	1c c0       	rjmp	.+56     	; 0x1224 <btn_down_handler+0x120>
    11ec:	80 91 b6 00 	lds	r24, 0x00B6
    11f0:	90 e0       	ldi	r25, 0x00	; 0
    11f2:	fc 01       	movw	r30, r24
    11f4:	ee 0f       	add	r30, r30
    11f6:	ff 1f       	adc	r31, r31
    11f8:	e8 0f       	add	r30, r24
    11fa:	f9 1f       	adc	r31, r25
    11fc:	ee 0f       	add	r30, r30
    11fe:	ff 1f       	adc	r31, r31
    1200:	ed 50       	subi	r30, 0x0D	; 13
    1202:	ff 4f       	sbci	r31, 0xFF	; 255
    1204:	22 81       	ldd	r18, Z+2	; 0x02
    1206:	2a 30       	cpi	r18, 0x0A	; 10
    1208:	11 f0       	breq	.+4      	; 0x120e <btn_down_handler+0x10a>
    120a:	21 50       	subi	r18, 0x01	; 1
    120c:	01 c0       	rjmp	.+2      	; 0x1210 <btn_down_handler+0x10c>
    120e:	2a e5       	ldi	r18, 0x5A	; 90
    1210:	fc 01       	movw	r30, r24
    1212:	ee 0f       	add	r30, r30
    1214:	ff 1f       	adc	r31, r31
    1216:	e8 0f       	add	r30, r24
    1218:	f9 1f       	adc	r31, r25
    121a:	ee 0f       	add	r30, r30
    121c:	ff 1f       	adc	r31, r31
    121e:	ed 50       	subi	r30, 0x0D	; 13
    1220:	ff 4f       	sbci	r31, 0xFF	; 255
    1222:	22 83       	std	Z+2, r18	; 0x02
    1224:	0e 94 ae 00 	call	0x15c	; 0x15c <redraw_query_led>
    1228:	08 95       	ret
    122a:	84 30       	cpi	r24, 0x04	; 4
    122c:	19 f4       	brne	.+6      	; 0x1234 <btn_down_handler+0x130>
    122e:	10 92 60 00 	sts	0x0060, r1
    1232:	04 c0       	rjmp	.+8      	; 0x123c <btn_down_handler+0x138>
    1234:	98 2f       	mov	r25, r24
    1236:	9f 5f       	subi	r25, 0xFF	; 255
    1238:	90 93 60 00 	sts	0x0060, r25
    123c:	10 92 a2 00 	sts	0x00A2, r1
    1240:	10 92 a1 00 	sts	0x00A1, r1
    1244:	20 91 a3 00 	lds	r18, 0x00A3
    1248:	30 91 a4 00 	lds	r19, 0x00A4
    124c:	21 15       	cp	r18, r1
    124e:	31 05       	cpc	r19, r1
    1250:	31 f0       	breq	.+12     	; 0x125e <btn_down_handler+0x15a>
    1252:	60 91 60 00 	lds	r22, 0x0060
    1256:	90 e0       	ldi	r25, 0x00	; 0
    1258:	70 e0       	ldi	r23, 0x00	; 0
    125a:	0e 94 49 00 	call	0x92	; 0x92 <change_temp_order>
    125e:	08 95       	ret

00001260 <checkQuery>:
    1260:	af 92       	push	r10
    1262:	bf 92       	push	r11
    1264:	cf 92       	push	r12
    1266:	df 92       	push	r13
    1268:	ef 92       	push	r14
    126a:	ff 92       	push	r15
    126c:	1f 93       	push	r17
    126e:	cf 93       	push	r28
    1270:	df 93       	push	r29
    1272:	c3 ef       	ldi	r28, 0xF3	; 243
    1274:	d0 e0       	ldi	r29, 0x00	; 0
    1276:	10 e0       	ldi	r17, 0x00	; 0
    1278:	e8 81       	ld	r30, Y
    127a:	ee 23       	and	r30, r30
    127c:	09 f4       	brne	.+2      	; 0x1280 <checkQuery+0x20>
    127e:	69 c0       	rjmp	.+210    	; 0x1352 <checkQuery+0xf2>
    1280:	89 81       	ldd	r24, Y+1	; 0x01
    1282:	81 30       	cpi	r24, 0x01	; 1
    1284:	21 f0       	breq	.+8      	; 0x128e <checkQuery+0x2e>
    1286:	82 30       	cpi	r24, 0x02	; 2
    1288:	09 f0       	breq	.+2      	; 0x128c <checkQuery+0x2c>
    128a:	63 c0       	rjmp	.+198    	; 0x1352 <checkQuery+0xf2>
    128c:	2e c0       	rjmp	.+92     	; 0x12ea <checkQuery+0x8a>
    128e:	f0 e0       	ldi	r31, 0x00	; 0
    1290:	ee 0f       	add	r30, r30
    1292:	ff 1f       	adc	r31, r31
    1294:	ee 0f       	add	r30, r30
    1296:	ff 1f       	adc	r31, r31
    1298:	ee 57       	subi	r30, 0x7E	; 126
    129a:	ff 4f       	sbci	r31, 0xFF	; 255
    129c:	a0 80       	ld	r10, Z
    129e:	b1 80       	ldd	r11, Z+1	; 0x01
    12a0:	c2 80       	ldd	r12, Z+2	; 0x02
    12a2:	d3 80       	ldd	r13, Z+3	; 0x03
    12a4:	ea 80       	ldd	r14, Y+2	; 0x02
    12a6:	ff 24       	eor	r15, r15
    12a8:	b7 01       	movw	r22, r14
    12aa:	88 27       	eor	r24, r24
    12ac:	77 fd       	sbrc	r23, 7
    12ae:	80 95       	com	r24
    12b0:	98 2f       	mov	r25, r24
    12b2:	0e 94 18 0b 	call	0x1630	; 0x1630 <__floatsisf>
    12b6:	9b 01       	movw	r18, r22
    12b8:	ac 01       	movw	r20, r24
    12ba:	c6 01       	movw	r24, r12
    12bc:	b5 01       	movw	r22, r10
    12be:	0e 94 1b 0c 	call	0x1836	; 0x1836 <__gesf2>
    12c2:	87 ff       	sbrs	r24, 7
    12c4:	2e c0       	rjmp	.+92     	; 0x1322 <checkQuery+0xc2>
    12c6:	b7 01       	movw	r22, r14
    12c8:	62 50       	subi	r22, 0x02	; 2
    12ca:	70 40       	sbci	r23, 0x00	; 0
    12cc:	88 27       	eor	r24, r24
    12ce:	77 fd       	sbrc	r23, 7
    12d0:	80 95       	com	r24
    12d2:	98 2f       	mov	r25, r24
    12d4:	0e 94 18 0b 	call	0x1630	; 0x1630 <__floatsisf>
    12d8:	9b 01       	movw	r18, r22
    12da:	ac 01       	movw	r20, r24
    12dc:	c6 01       	movw	r24, r12
    12de:	b5 01       	movw	r22, r10
    12e0:	0e 94 e1 0a 	call	0x15c2	; 0x15c2 <__cmpsf2>
    12e4:	87 ff       	sbrs	r24, 7
    12e6:	35 c0       	rjmp	.+106    	; 0x1352 <checkQuery+0xf2>
    12e8:	30 c0       	rjmp	.+96     	; 0x134a <checkQuery+0xea>
    12ea:	f0 e0       	ldi	r31, 0x00	; 0
    12ec:	ee 0f       	add	r30, r30
    12ee:	ff 1f       	adc	r31, r31
    12f0:	ee 0f       	add	r30, r30
    12f2:	ff 1f       	adc	r31, r31
    12f4:	ee 57       	subi	r30, 0x7E	; 126
    12f6:	ff 4f       	sbci	r31, 0xFF	; 255
    12f8:	a0 80       	ld	r10, Z
    12fa:	b1 80       	ldd	r11, Z+1	; 0x01
    12fc:	c2 80       	ldd	r12, Z+2	; 0x02
    12fe:	d3 80       	ldd	r13, Z+3	; 0x03
    1300:	ea 80       	ldd	r14, Y+2	; 0x02
    1302:	ff 24       	eor	r15, r15
    1304:	b7 01       	movw	r22, r14
    1306:	88 27       	eor	r24, r24
    1308:	77 fd       	sbrc	r23, 7
    130a:	80 95       	com	r24
    130c:	98 2f       	mov	r25, r24
    130e:	0e 94 18 0b 	call	0x1630	; 0x1630 <__floatsisf>
    1312:	9b 01       	movw	r18, r22
    1314:	ac 01       	movw	r20, r24
    1316:	c6 01       	movw	r24, r12
    1318:	b5 01       	movw	r22, r10
    131a:	0e 94 e1 0a 	call	0x15c2	; 0x15c2 <__cmpsf2>
    131e:	18 16       	cp	r1, r24
    1320:	1c f0       	brlt	.+6      	; 0x1328 <checkQuery+0xc8>
    1322:	81 2f       	mov	r24, r17
    1324:	61 e0       	ldi	r22, 0x01	; 1
    1326:	13 c0       	rjmp	.+38     	; 0x134e <checkQuery+0xee>
    1328:	b7 01       	movw	r22, r14
    132a:	6e 5f       	subi	r22, 0xFE	; 254
    132c:	7f 4f       	sbci	r23, 0xFF	; 255
    132e:	88 27       	eor	r24, r24
    1330:	77 fd       	sbrc	r23, 7
    1332:	80 95       	com	r24
    1334:	98 2f       	mov	r25, r24
    1336:	0e 94 18 0b 	call	0x1630	; 0x1630 <__floatsisf>
    133a:	9b 01       	movw	r18, r22
    133c:	ac 01       	movw	r20, r24
    133e:	c6 01       	movw	r24, r12
    1340:	b5 01       	movw	r22, r10
    1342:	0e 94 1b 0c 	call	0x1836	; 0x1836 <__gesf2>
    1346:	18 16       	cp	r1, r24
    1348:	24 f4       	brge	.+8      	; 0x1352 <checkQuery+0xf2>
    134a:	81 2f       	mov	r24, r17
    134c:	60 e0       	ldi	r22, 0x00	; 0
    134e:	0e 94 3e 01 	call	0x27c	; 0x27c <setReleValue>
    1352:	1f 5f       	subi	r17, 0xFF	; 255
    1354:	26 96       	adiw	r28, 0x06	; 6
    1356:	16 30       	cpi	r17, 0x06	; 6
    1358:	09 f0       	breq	.+2      	; 0x135c <checkQuery+0xfc>
    135a:	8e cf       	rjmp	.-228    	; 0x1278 <checkQuery+0x18>
    135c:	df 91       	pop	r29
    135e:	cf 91       	pop	r28
    1360:	1f 91       	pop	r17
    1362:	ff 90       	pop	r15
    1364:	ef 90       	pop	r14
    1366:	df 90       	pop	r13
    1368:	cf 90       	pop	r12
    136a:	bf 90       	pop	r11
    136c:	af 90       	pop	r10
    136e:	08 95       	ret

00001370 <load_props>:
    1370:	8c eb       	ldi	r24, 0xBC	; 188
    1372:	90 e0       	ldi	r25, 0x00	; 0
    1374:	60 e0       	ldi	r22, 0x00	; 0
    1376:	70 e0       	ldi	r23, 0x00	; 0
    1378:	48 e2       	ldi	r20, 0x28	; 40
    137a:	50 e0       	ldi	r21, 0x00	; 0
    137c:	0e 94 b5 0c 	call	0x196a	; 0x196a <__eerd_block_m16a>
    1380:	83 ef       	ldi	r24, 0xF3	; 243
    1382:	90 e0       	ldi	r25, 0x00	; 0
    1384:	68 e2       	ldi	r22, 0x28	; 40
    1386:	70 e0       	ldi	r23, 0x00	; 0
    1388:	48 e1       	ldi	r20, 0x18	; 24
    138a:	50 e0       	ldi	r21, 0x00	; 0
    138c:	0e 94 b5 0c 	call	0x196a	; 0x196a <__eerd_block_m16a>
    1390:	e3 ef       	ldi	r30, 0xF3	; 243
    1392:	f0 e0       	ldi	r31, 0x00	; 0
    1394:	8a e0       	ldi	r24, 0x0A	; 10
    1396:	90 81       	ld	r25, Z
    1398:	95 30       	cpi	r25, 0x05	; 5
    139a:	08 f0       	brcs	.+2      	; 0x139e <load_props+0x2e>
    139c:	10 82       	st	Z, r1
    139e:	91 81       	ldd	r25, Z+1	; 0x01
    13a0:	93 30       	cpi	r25, 0x03	; 3
    13a2:	08 f0       	brcs	.+2      	; 0x13a6 <load_props+0x36>
    13a4:	11 82       	std	Z+1, r1	; 0x01
    13a6:	92 81       	ldd	r25, Z+2	; 0x02
    13a8:	9b 35       	cpi	r25, 0x5B	; 91
    13aa:	08 f0       	brcs	.+2      	; 0x13ae <load_props+0x3e>
    13ac:	82 83       	std	Z+2, r24	; 0x02
    13ae:	92 81       	ldd	r25, Z+2	; 0x02
    13b0:	9a 30       	cpi	r25, 0x0A	; 10
    13b2:	08 f4       	brcc	.+2      	; 0x13b6 <load_props+0x46>
    13b4:	82 83       	std	Z+2, r24	; 0x02
    13b6:	36 96       	adiw	r30, 0x06	; 6
    13b8:	91 e0       	ldi	r25, 0x01	; 1
    13ba:	e7 31       	cpi	r30, 0x17	; 23
    13bc:	f9 07       	cpc	r31, r25
    13be:	59 f7       	brne	.-42     	; 0x1396 <load_props+0x26>
    13c0:	08 95       	ret

000013c2 <main>:
    13c2:	1f 93       	push	r17
    13c4:	cf 93       	push	r28
    13c6:	df 93       	push	r29
    13c8:	0e 94 b8 09 	call	0x1370	; 0x1370 <load_props>
    13cc:	0e 94 86 01 	call	0x30c	; 0x30c <led_init>
    13d0:	0e 94 cb 02 	call	0x596	; 0x596 <sound_init>
    13d4:	0e 94 96 03 	call	0x72c	; 0x72c <ow_master_init>
    13d8:	0e 94 bb 05 	call	0xb76	; 0xb76 <OW_M_startLoading>
    13dc:	89 e1       	ldi	r24, 0x19	; 25
    13de:	80 93 96 00 	sts	0x0096, r24
    13e2:	0e 94 d1 05 	call	0xba2	; 0xba2 <ow_slave_init>
    13e6:	82 b3       	in	r24, 0x12	; 18
    13e8:	80 67       	ori	r24, 0x70	; 112
    13ea:	82 bb       	out	0x12, r24	; 18
    13ec:	8b e6       	ldi	r24, 0x6B	; 107
    13ee:	83 bf       	out	0x33, r24	; 51
    13f0:	89 b7       	in	r24, 0x39	; 57
    13f2:	81 60       	ori	r24, 0x01	; 1
    13f4:	89 bf       	out	0x39, r24	; 57
    13f6:	bb 9a       	sbi	0x17, 3	; 23
    13f8:	8a b3       	in	r24, 0x1a	; 26
    13fa:	83 60       	ori	r24, 0x03	; 3
    13fc:	8a bb       	out	0x1a, r24	; 26
    13fe:	78 94       	sei
    1400:	88 ec       	ldi	r24, 0xC8	; 200
    1402:	90 e0       	ldi	r25, 0x00	; 0
    1404:	0e 94 d3 02 	call	0x5a6	; 0x5a6 <sound_play>
    1408:	80 91 b8 00 	lds	r24, 0x00B8
    140c:	84 99       	sbic	0x10, 4	; 16
    140e:	0a c0       	rjmp	.+20     	; 0x1424 <main+0x62>
    1410:	85 31       	cpi	r24, 0x15	; 21
    1412:	20 f0       	brcs	.+8      	; 0x141c <main+0x5a>
    1414:	81 e0       	ldi	r24, 0x01	; 1
    1416:	0e 94 52 07 	call	0xea4	; 0xea4 <btn_sel_handler>
    141a:	0e c0       	rjmp	.+28     	; 0x1438 <main+0x76>
    141c:	8f 5f       	subi	r24, 0xFF	; 255
    141e:	80 93 b8 00 	sts	0x00B8, r24
    1422:	0a c0       	rjmp	.+20     	; 0x1438 <main+0x76>
    1424:	81 50       	subi	r24, 0x01	; 1
    1426:	84 31       	cpi	r24, 0x14	; 20
    1428:	18 f4       	brcc	.+6      	; 0x1430 <main+0x6e>
    142a:	80 e0       	ldi	r24, 0x00	; 0
    142c:	0e 94 52 07 	call	0xea4	; 0xea4 <btn_sel_handler>
    1430:	10 92 b8 00 	sts	0x00B8, r1
    1434:	10 92 bb 00 	sts	0x00BB, r1
    1438:	80 91 b9 00 	lds	r24, 0x00B9
    143c:	85 99       	sbic	0x10, 5	; 16
    143e:	09 c0       	rjmp	.+18     	; 0x1452 <main+0x90>
    1440:	8b 30       	cpi	r24, 0x0B	; 11
    1442:	18 f0       	brcs	.+6      	; 0x144a <main+0x88>
    1444:	0e 94 d6 07 	call	0xfac	; 0xfac <btn_up_handler>
    1448:	0b c0       	rjmp	.+22     	; 0x1460 <main+0x9e>
    144a:	8f 5f       	subi	r24, 0xFF	; 255
    144c:	80 93 b9 00 	sts	0x00B9, r24
    1450:	07 c0       	rjmp	.+14     	; 0x1460 <main+0x9e>
    1452:	81 50       	subi	r24, 0x01	; 1
    1454:	8a 30       	cpi	r24, 0x0A	; 10
    1456:	10 f4       	brcc	.+4      	; 0x145c <main+0x9a>
    1458:	0e 94 d6 07 	call	0xfac	; 0xfac <btn_up_handler>
    145c:	10 92 b9 00 	sts	0x00B9, r1
    1460:	80 91 ba 00 	lds	r24, 0x00BA
    1464:	86 99       	sbic	0x10, 6	; 16
    1466:	09 c0       	rjmp	.+18     	; 0x147a <main+0xb8>
    1468:	8b 30       	cpi	r24, 0x0B	; 11
    146a:	18 f0       	brcs	.+6      	; 0x1472 <main+0xb0>
    146c:	0e 94 82 08 	call	0x1104	; 0x1104 <btn_down_handler>
    1470:	0b c0       	rjmp	.+22     	; 0x1488 <main+0xc6>
    1472:	8f 5f       	subi	r24, 0xFF	; 255
    1474:	80 93 ba 00 	sts	0x00BA, r24
    1478:	07 c0       	rjmp	.+14     	; 0x1488 <main+0xc6>
    147a:	81 50       	subi	r24, 0x01	; 1
    147c:	8a 30       	cpi	r24, 0x0A	; 10
    147e:	10 f4       	brcc	.+4      	; 0x1484 <main+0xc2>
    1480:	0e 94 82 08 	call	0x1104	; 0x1104 <btn_down_handler>
    1484:	10 92 ba 00 	sts	0x00BA, r1
    1488:	80 91 a0 00 	lds	r24, 0x00A0
    148c:	88 23       	and	r24, r24
    148e:	11 f0       	breq	.+4      	; 0x1494 <main+0xd2>
    1490:	85 31       	cpi	r24, 0x15	; 21
    1492:	79 f4       	brne	.+30     	; 0x14b2 <main+0xf0>
    1494:	0e 94 57 05 	call	0xaae	; 0xaae <checkTemp>
    1498:	c2 e8       	ldi	r28, 0x82	; 130
    149a:	d0 e0       	ldi	r29, 0x00	; 0
    149c:	10 e0       	ldi	r17, 0x00	; 0
    149e:	49 91       	ld	r20, Y+
    14a0:	59 91       	ld	r21, Y+
    14a2:	69 91       	ld	r22, Y+
    14a4:	79 91       	ld	r23, Y+
    14a6:	81 2f       	mov	r24, r17
    14a8:	0e 94 3d 02 	call	0x47a	; 0x47a <write_num>
    14ac:	1f 5f       	subi	r17, 0xFF	; 255
    14ae:	15 30       	cpi	r17, 0x05	; 5
    14b0:	b1 f7       	brne	.-20     	; 0x149e <main+0xdc>
    14b2:	80 91 a0 00 	lds	r24, 0x00A0
    14b6:	88 23       	and	r24, r24
    14b8:	11 f4       	brne	.+4      	; 0x14be <main+0xfc>
    14ba:	0e 94 30 09 	call	0x1260	; 0x1260 <checkQuery>
    14be:	8f e7       	ldi	r24, 0x7F	; 127
    14c0:	98 e3       	ldi	r25, 0x38	; 56
    14c2:	a1 e0       	ldi	r26, 0x01	; 1
    14c4:	81 50       	subi	r24, 0x01	; 1
    14c6:	90 40       	sbci	r25, 0x00	; 0
    14c8:	a0 40       	sbci	r26, 0x00	; 0
    14ca:	e1 f7       	brne	.-8      	; 0x14c4 <main+0x102>
    14cc:	00 c0       	rjmp	.+0      	; 0x14ce <main+0x10c>
    14ce:	00 00       	nop
    14d0:	9b cf       	rjmp	.-202    	; 0x1408 <main+0x46>

000014d2 <__subsf3>:
    14d2:	50 58       	subi	r21, 0x80	; 128

000014d4 <__addsf3>:
    14d4:	bb 27       	eor	r27, r27
    14d6:	aa 27       	eor	r26, r26
    14d8:	0e d0       	rcall	.+28     	; 0x14f6 <__addsf3x>
    14da:	5c c1       	rjmp	.+696    	; 0x1794 <__fp_round>
    14dc:	4d d1       	rcall	.+666    	; 0x1778 <__fp_pscA>
    14de:	30 f0       	brcs	.+12     	; 0x14ec <__addsf3+0x18>
    14e0:	52 d1       	rcall	.+676    	; 0x1786 <__fp_pscB>
    14e2:	20 f0       	brcs	.+8      	; 0x14ec <__addsf3+0x18>
    14e4:	31 f4       	brne	.+12     	; 0x14f2 <__addsf3+0x1e>
    14e6:	9f 3f       	cpi	r25, 0xFF	; 255
    14e8:	11 f4       	brne	.+4      	; 0x14ee <__addsf3+0x1a>
    14ea:	1e f4       	brtc	.+6      	; 0x14f2 <__addsf3+0x1e>
    14ec:	42 c1       	rjmp	.+644    	; 0x1772 <__fp_nan>
    14ee:	0e f4       	brtc	.+2      	; 0x14f2 <__addsf3+0x1e>
    14f0:	e0 95       	com	r30
    14f2:	e7 fb       	bst	r30, 7
    14f4:	0f c1       	rjmp	.+542    	; 0x1714 <__fp_inf>

000014f6 <__addsf3x>:
    14f6:	e9 2f       	mov	r30, r25
    14f8:	5e d1       	rcall	.+700    	; 0x17b6 <__fp_split3>
    14fa:	80 f3       	brcs	.-32     	; 0x14dc <__addsf3+0x8>
    14fc:	ba 17       	cp	r27, r26
    14fe:	62 07       	cpc	r22, r18
    1500:	73 07       	cpc	r23, r19
    1502:	84 07       	cpc	r24, r20
    1504:	95 07       	cpc	r25, r21
    1506:	18 f0       	brcs	.+6      	; 0x150e <__addsf3x+0x18>
    1508:	71 f4       	brne	.+28     	; 0x1526 <__addsf3x+0x30>
    150a:	9e f5       	brtc	.+102    	; 0x1572 <__addsf3x+0x7c>
    150c:	8d c1       	rjmp	.+794    	; 0x1828 <__fp_zero>
    150e:	0e f4       	brtc	.+2      	; 0x1512 <__addsf3x+0x1c>
    1510:	e0 95       	com	r30
    1512:	0b 2e       	mov	r0, r27
    1514:	ba 2f       	mov	r27, r26
    1516:	a0 2d       	mov	r26, r0
    1518:	0b 01       	movw	r0, r22
    151a:	b9 01       	movw	r22, r18
    151c:	90 01       	movw	r18, r0
    151e:	0c 01       	movw	r0, r24
    1520:	ca 01       	movw	r24, r20
    1522:	a0 01       	movw	r20, r0
    1524:	11 24       	eor	r1, r1
    1526:	ff 27       	eor	r31, r31
    1528:	59 1b       	sub	r21, r25
    152a:	99 f0       	breq	.+38     	; 0x1552 <__addsf3x+0x5c>
    152c:	59 3f       	cpi	r21, 0xF9	; 249
    152e:	50 f4       	brcc	.+20     	; 0x1544 <__addsf3x+0x4e>
    1530:	50 3e       	cpi	r21, 0xE0	; 224
    1532:	68 f1       	brcs	.+90     	; 0x158e <__addsf3x+0x98>
    1534:	1a 16       	cp	r1, r26
    1536:	f0 40       	sbci	r31, 0x00	; 0
    1538:	a2 2f       	mov	r26, r18
    153a:	23 2f       	mov	r18, r19
    153c:	34 2f       	mov	r19, r20
    153e:	44 27       	eor	r20, r20
    1540:	58 5f       	subi	r21, 0xF8	; 248
    1542:	f3 cf       	rjmp	.-26     	; 0x152a <__addsf3x+0x34>
    1544:	46 95       	lsr	r20
    1546:	37 95       	ror	r19
    1548:	27 95       	ror	r18
    154a:	a7 95       	ror	r26
    154c:	f0 40       	sbci	r31, 0x00	; 0
    154e:	53 95       	inc	r21
    1550:	c9 f7       	brne	.-14     	; 0x1544 <__addsf3x+0x4e>
    1552:	7e f4       	brtc	.+30     	; 0x1572 <__addsf3x+0x7c>
    1554:	1f 16       	cp	r1, r31
    1556:	ba 0b       	sbc	r27, r26
    1558:	62 0b       	sbc	r22, r18
    155a:	73 0b       	sbc	r23, r19
    155c:	84 0b       	sbc	r24, r20
    155e:	ba f0       	brmi	.+46     	; 0x158e <__addsf3x+0x98>
    1560:	91 50       	subi	r25, 0x01	; 1
    1562:	a1 f0       	breq	.+40     	; 0x158c <__addsf3x+0x96>
    1564:	ff 0f       	add	r31, r31
    1566:	bb 1f       	adc	r27, r27
    1568:	66 1f       	adc	r22, r22
    156a:	77 1f       	adc	r23, r23
    156c:	88 1f       	adc	r24, r24
    156e:	c2 f7       	brpl	.-16     	; 0x1560 <__addsf3x+0x6a>
    1570:	0e c0       	rjmp	.+28     	; 0x158e <__addsf3x+0x98>
    1572:	ba 0f       	add	r27, r26
    1574:	62 1f       	adc	r22, r18
    1576:	73 1f       	adc	r23, r19
    1578:	84 1f       	adc	r24, r20
    157a:	48 f4       	brcc	.+18     	; 0x158e <__addsf3x+0x98>
    157c:	87 95       	ror	r24
    157e:	77 95       	ror	r23
    1580:	67 95       	ror	r22
    1582:	b7 95       	ror	r27
    1584:	f7 95       	ror	r31
    1586:	9e 3f       	cpi	r25, 0xFE	; 254
    1588:	08 f0       	brcs	.+2      	; 0x158c <__addsf3x+0x96>
    158a:	b3 cf       	rjmp	.-154    	; 0x14f2 <__addsf3+0x1e>
    158c:	93 95       	inc	r25
    158e:	88 0f       	add	r24, r24
    1590:	08 f0       	brcs	.+2      	; 0x1594 <__addsf3x+0x9e>
    1592:	99 27       	eor	r25, r25
    1594:	ee 0f       	add	r30, r30
    1596:	97 95       	ror	r25
    1598:	87 95       	ror	r24
    159a:	08 95       	ret

0000159c <ceil>:
    159c:	2e d1       	rcall	.+604    	; 0x17fa <__fp_trunc>
    159e:	80 f0       	brcs	.+32     	; 0x15c0 <ceil+0x24>
    15a0:	9f 37       	cpi	r25, 0x7F	; 127
    15a2:	40 f4       	brcc	.+16     	; 0x15b4 <ceil+0x18>
    15a4:	91 11       	cpse	r25, r1
    15a6:	0e f4       	brtc	.+2      	; 0x15aa <ceil+0xe>
    15a8:	40 c1       	rjmp	.+640    	; 0x182a <__fp_szero>
    15aa:	60 e0       	ldi	r22, 0x00	; 0
    15ac:	70 e0       	ldi	r23, 0x00	; 0
    15ae:	80 e8       	ldi	r24, 0x80	; 128
    15b0:	9f e3       	ldi	r25, 0x3F	; 63
    15b2:	08 95       	ret
    15b4:	26 f0       	brts	.+8      	; 0x15be <ceil+0x22>
    15b6:	1b 16       	cp	r1, r27
    15b8:	61 1d       	adc	r22, r1
    15ba:	71 1d       	adc	r23, r1
    15bc:	81 1d       	adc	r24, r1
    15be:	b0 c0       	rjmp	.+352    	; 0x1720 <__fp_mintl>
    15c0:	ca c0       	rjmp	.+404    	; 0x1756 <__fp_mpack>

000015c2 <__cmpsf2>:
    15c2:	84 d0       	rcall	.+264    	; 0x16cc <__fp_cmp>
    15c4:	08 f4       	brcc	.+2      	; 0x15c8 <__cmpsf2+0x6>
    15c6:	81 e0       	ldi	r24, 0x01	; 1
    15c8:	08 95       	ret

000015ca <__fixsfsi>:
    15ca:	04 d0       	rcall	.+8      	; 0x15d4 <__fixunssfsi>
    15cc:	68 94       	set
    15ce:	b1 11       	cpse	r27, r1
    15d0:	2c c1       	rjmp	.+600    	; 0x182a <__fp_szero>
    15d2:	08 95       	ret

000015d4 <__fixunssfsi>:
    15d4:	f8 d0       	rcall	.+496    	; 0x17c6 <__fp_splitA>
    15d6:	88 f0       	brcs	.+34     	; 0x15fa <__fixunssfsi+0x26>
    15d8:	9f 57       	subi	r25, 0x7F	; 127
    15da:	90 f0       	brcs	.+36     	; 0x1600 <__fixunssfsi+0x2c>
    15dc:	b9 2f       	mov	r27, r25
    15de:	99 27       	eor	r25, r25
    15e0:	b7 51       	subi	r27, 0x17	; 23
    15e2:	a0 f0       	brcs	.+40     	; 0x160c <__fixunssfsi+0x38>
    15e4:	d1 f0       	breq	.+52     	; 0x161a <__fixunssfsi+0x46>
    15e6:	66 0f       	add	r22, r22
    15e8:	77 1f       	adc	r23, r23
    15ea:	88 1f       	adc	r24, r24
    15ec:	99 1f       	adc	r25, r25
    15ee:	1a f0       	brmi	.+6      	; 0x15f6 <__fixunssfsi+0x22>
    15f0:	ba 95       	dec	r27
    15f2:	c9 f7       	brne	.-14     	; 0x15e6 <__fixunssfsi+0x12>
    15f4:	12 c0       	rjmp	.+36     	; 0x161a <__fixunssfsi+0x46>
    15f6:	b1 30       	cpi	r27, 0x01	; 1
    15f8:	81 f0       	breq	.+32     	; 0x161a <__fixunssfsi+0x46>
    15fa:	16 d1       	rcall	.+556    	; 0x1828 <__fp_zero>
    15fc:	b1 e0       	ldi	r27, 0x01	; 1
    15fe:	08 95       	ret
    1600:	13 c1       	rjmp	.+550    	; 0x1828 <__fp_zero>
    1602:	67 2f       	mov	r22, r23
    1604:	78 2f       	mov	r23, r24
    1606:	88 27       	eor	r24, r24
    1608:	b8 5f       	subi	r27, 0xF8	; 248
    160a:	39 f0       	breq	.+14     	; 0x161a <__fixunssfsi+0x46>
    160c:	b9 3f       	cpi	r27, 0xF9	; 249
    160e:	cc f3       	brlt	.-14     	; 0x1602 <__fixunssfsi+0x2e>
    1610:	86 95       	lsr	r24
    1612:	77 95       	ror	r23
    1614:	67 95       	ror	r22
    1616:	b3 95       	inc	r27
    1618:	d9 f7       	brne	.-10     	; 0x1610 <__fixunssfsi+0x3c>
    161a:	3e f4       	brtc	.+14     	; 0x162a <__fixunssfsi+0x56>
    161c:	90 95       	com	r25
    161e:	80 95       	com	r24
    1620:	70 95       	com	r23
    1622:	61 95       	neg	r22
    1624:	7f 4f       	sbci	r23, 0xFF	; 255
    1626:	8f 4f       	sbci	r24, 0xFF	; 255
    1628:	9f 4f       	sbci	r25, 0xFF	; 255
    162a:	08 95       	ret

0000162c <__floatunsisf>:
    162c:	e8 94       	clt
    162e:	09 c0       	rjmp	.+18     	; 0x1642 <__floatsisf+0x12>

00001630 <__floatsisf>:
    1630:	97 fb       	bst	r25, 7
    1632:	3e f4       	brtc	.+14     	; 0x1642 <__floatsisf+0x12>
    1634:	90 95       	com	r25
    1636:	80 95       	com	r24
    1638:	70 95       	com	r23
    163a:	61 95       	neg	r22
    163c:	7f 4f       	sbci	r23, 0xFF	; 255
    163e:	8f 4f       	sbci	r24, 0xFF	; 255
    1640:	9f 4f       	sbci	r25, 0xFF	; 255
    1642:	99 23       	and	r25, r25
    1644:	a9 f0       	breq	.+42     	; 0x1670 <__floatsisf+0x40>
    1646:	f9 2f       	mov	r31, r25
    1648:	96 e9       	ldi	r25, 0x96	; 150
    164a:	bb 27       	eor	r27, r27
    164c:	93 95       	inc	r25
    164e:	f6 95       	lsr	r31
    1650:	87 95       	ror	r24
    1652:	77 95       	ror	r23
    1654:	67 95       	ror	r22
    1656:	b7 95       	ror	r27
    1658:	f1 11       	cpse	r31, r1
    165a:	f8 cf       	rjmp	.-16     	; 0x164c <__floatsisf+0x1c>
    165c:	fa f4       	brpl	.+62     	; 0x169c <__floatsisf+0x6c>
    165e:	bb 0f       	add	r27, r27
    1660:	11 f4       	brne	.+4      	; 0x1666 <__floatsisf+0x36>
    1662:	60 ff       	sbrs	r22, 0
    1664:	1b c0       	rjmp	.+54     	; 0x169c <__floatsisf+0x6c>
    1666:	6f 5f       	subi	r22, 0xFF	; 255
    1668:	7f 4f       	sbci	r23, 0xFF	; 255
    166a:	8f 4f       	sbci	r24, 0xFF	; 255
    166c:	9f 4f       	sbci	r25, 0xFF	; 255
    166e:	16 c0       	rjmp	.+44     	; 0x169c <__floatsisf+0x6c>
    1670:	88 23       	and	r24, r24
    1672:	11 f0       	breq	.+4      	; 0x1678 <__floatsisf+0x48>
    1674:	96 e9       	ldi	r25, 0x96	; 150
    1676:	11 c0       	rjmp	.+34     	; 0x169a <__floatsisf+0x6a>
    1678:	77 23       	and	r23, r23
    167a:	21 f0       	breq	.+8      	; 0x1684 <__floatsisf+0x54>
    167c:	9e e8       	ldi	r25, 0x8E	; 142
    167e:	87 2f       	mov	r24, r23
    1680:	76 2f       	mov	r23, r22
    1682:	05 c0       	rjmp	.+10     	; 0x168e <__floatsisf+0x5e>
    1684:	66 23       	and	r22, r22
    1686:	71 f0       	breq	.+28     	; 0x16a4 <__floatsisf+0x74>
    1688:	96 e8       	ldi	r25, 0x86	; 134
    168a:	86 2f       	mov	r24, r22
    168c:	70 e0       	ldi	r23, 0x00	; 0
    168e:	60 e0       	ldi	r22, 0x00	; 0
    1690:	2a f0       	brmi	.+10     	; 0x169c <__floatsisf+0x6c>
    1692:	9a 95       	dec	r25
    1694:	66 0f       	add	r22, r22
    1696:	77 1f       	adc	r23, r23
    1698:	88 1f       	adc	r24, r24
    169a:	da f7       	brpl	.-10     	; 0x1692 <__floatsisf+0x62>
    169c:	88 0f       	add	r24, r24
    169e:	96 95       	lsr	r25
    16a0:	87 95       	ror	r24
    16a2:	97 f9       	bld	r25, 7
    16a4:	08 95       	ret

000016a6 <floor>:
    16a6:	a9 d0       	rcall	.+338    	; 0x17fa <__fp_trunc>
    16a8:	80 f0       	brcs	.+32     	; 0x16ca <floor+0x24>
    16aa:	9f 37       	cpi	r25, 0x7F	; 127
    16ac:	40 f4       	brcc	.+16     	; 0x16be <floor+0x18>
    16ae:	91 11       	cpse	r25, r1
    16b0:	0e f0       	brts	.+2      	; 0x16b4 <floor+0xe>
    16b2:	bb c0       	rjmp	.+374    	; 0x182a <__fp_szero>
    16b4:	60 e0       	ldi	r22, 0x00	; 0
    16b6:	70 e0       	ldi	r23, 0x00	; 0
    16b8:	80 e8       	ldi	r24, 0x80	; 128
    16ba:	9f eb       	ldi	r25, 0xBF	; 191
    16bc:	08 95       	ret
    16be:	26 f4       	brtc	.+8      	; 0x16c8 <floor+0x22>
    16c0:	1b 16       	cp	r1, r27
    16c2:	61 1d       	adc	r22, r1
    16c4:	71 1d       	adc	r23, r1
    16c6:	81 1d       	adc	r24, r1
    16c8:	2b c0       	rjmp	.+86     	; 0x1720 <__fp_mintl>
    16ca:	45 c0       	rjmp	.+138    	; 0x1756 <__fp_mpack>

000016cc <__fp_cmp>:
    16cc:	99 0f       	add	r25, r25
    16ce:	00 08       	sbc	r0, r0
    16d0:	55 0f       	add	r21, r21
    16d2:	aa 0b       	sbc	r26, r26
    16d4:	e0 e8       	ldi	r30, 0x80	; 128
    16d6:	fe ef       	ldi	r31, 0xFE	; 254
    16d8:	16 16       	cp	r1, r22
    16da:	17 06       	cpc	r1, r23
    16dc:	e8 07       	cpc	r30, r24
    16de:	f9 07       	cpc	r31, r25
    16e0:	c0 f0       	brcs	.+48     	; 0x1712 <__fp_cmp+0x46>
    16e2:	12 16       	cp	r1, r18
    16e4:	13 06       	cpc	r1, r19
    16e6:	e4 07       	cpc	r30, r20
    16e8:	f5 07       	cpc	r31, r21
    16ea:	98 f0       	brcs	.+38     	; 0x1712 <__fp_cmp+0x46>
    16ec:	62 1b       	sub	r22, r18
    16ee:	73 0b       	sbc	r23, r19
    16f0:	84 0b       	sbc	r24, r20
    16f2:	95 0b       	sbc	r25, r21
    16f4:	39 f4       	brne	.+14     	; 0x1704 <__fp_cmp+0x38>
    16f6:	0a 26       	eor	r0, r26
    16f8:	61 f0       	breq	.+24     	; 0x1712 <__fp_cmp+0x46>
    16fa:	23 2b       	or	r18, r19
    16fc:	24 2b       	or	r18, r20
    16fe:	25 2b       	or	r18, r21
    1700:	21 f4       	brne	.+8      	; 0x170a <__fp_cmp+0x3e>
    1702:	08 95       	ret
    1704:	0a 26       	eor	r0, r26
    1706:	09 f4       	brne	.+2      	; 0x170a <__fp_cmp+0x3e>
    1708:	a1 40       	sbci	r26, 0x01	; 1
    170a:	a6 95       	lsr	r26
    170c:	8f ef       	ldi	r24, 0xFF	; 255
    170e:	81 1d       	adc	r24, r1
    1710:	81 1d       	adc	r24, r1
    1712:	08 95       	ret

00001714 <__fp_inf>:
    1714:	97 f9       	bld	r25, 7
    1716:	9f 67       	ori	r25, 0x7F	; 127
    1718:	80 e8       	ldi	r24, 0x80	; 128
    171a:	70 e0       	ldi	r23, 0x00	; 0
    171c:	60 e0       	ldi	r22, 0x00	; 0
    171e:	08 95       	ret

00001720 <__fp_mintl>:
    1720:	88 23       	and	r24, r24
    1722:	71 f4       	brne	.+28     	; 0x1740 <__fp_mintl+0x20>
    1724:	77 23       	and	r23, r23
    1726:	21 f0       	breq	.+8      	; 0x1730 <__fp_mintl+0x10>
    1728:	98 50       	subi	r25, 0x08	; 8
    172a:	87 2b       	or	r24, r23
    172c:	76 2f       	mov	r23, r22
    172e:	07 c0       	rjmp	.+14     	; 0x173e <__fp_mintl+0x1e>
    1730:	66 23       	and	r22, r22
    1732:	11 f4       	brne	.+4      	; 0x1738 <__fp_mintl+0x18>
    1734:	99 27       	eor	r25, r25
    1736:	0d c0       	rjmp	.+26     	; 0x1752 <__fp_mintl+0x32>
    1738:	90 51       	subi	r25, 0x10	; 16
    173a:	86 2b       	or	r24, r22
    173c:	70 e0       	ldi	r23, 0x00	; 0
    173e:	60 e0       	ldi	r22, 0x00	; 0
    1740:	2a f0       	brmi	.+10     	; 0x174c <__fp_mintl+0x2c>
    1742:	9a 95       	dec	r25
    1744:	66 0f       	add	r22, r22
    1746:	77 1f       	adc	r23, r23
    1748:	88 1f       	adc	r24, r24
    174a:	da f7       	brpl	.-10     	; 0x1742 <__fp_mintl+0x22>
    174c:	88 0f       	add	r24, r24
    174e:	96 95       	lsr	r25
    1750:	87 95       	ror	r24
    1752:	97 f9       	bld	r25, 7
    1754:	08 95       	ret

00001756 <__fp_mpack>:
    1756:	9f 3f       	cpi	r25, 0xFF	; 255
    1758:	31 f0       	breq	.+12     	; 0x1766 <__fp_mpack_finite+0xc>

0000175a <__fp_mpack_finite>:
    175a:	91 50       	subi	r25, 0x01	; 1
    175c:	20 f4       	brcc	.+8      	; 0x1766 <__fp_mpack_finite+0xc>
    175e:	87 95       	ror	r24
    1760:	77 95       	ror	r23
    1762:	67 95       	ror	r22
    1764:	b7 95       	ror	r27
    1766:	88 0f       	add	r24, r24
    1768:	91 1d       	adc	r25, r1
    176a:	96 95       	lsr	r25
    176c:	87 95       	ror	r24
    176e:	97 f9       	bld	r25, 7
    1770:	08 95       	ret

00001772 <__fp_nan>:
    1772:	9f ef       	ldi	r25, 0xFF	; 255
    1774:	80 ec       	ldi	r24, 0xC0	; 192
    1776:	08 95       	ret

00001778 <__fp_pscA>:
    1778:	00 24       	eor	r0, r0
    177a:	0a 94       	dec	r0
    177c:	16 16       	cp	r1, r22
    177e:	17 06       	cpc	r1, r23
    1780:	18 06       	cpc	r1, r24
    1782:	09 06       	cpc	r0, r25
    1784:	08 95       	ret

00001786 <__fp_pscB>:
    1786:	00 24       	eor	r0, r0
    1788:	0a 94       	dec	r0
    178a:	12 16       	cp	r1, r18
    178c:	13 06       	cpc	r1, r19
    178e:	14 06       	cpc	r1, r20
    1790:	05 06       	cpc	r0, r21
    1792:	08 95       	ret

00001794 <__fp_round>:
    1794:	09 2e       	mov	r0, r25
    1796:	03 94       	inc	r0
    1798:	00 0c       	add	r0, r0
    179a:	11 f4       	brne	.+4      	; 0x17a0 <__fp_round+0xc>
    179c:	88 23       	and	r24, r24
    179e:	52 f0       	brmi	.+20     	; 0x17b4 <__fp_round+0x20>
    17a0:	bb 0f       	add	r27, r27
    17a2:	40 f4       	brcc	.+16     	; 0x17b4 <__fp_round+0x20>
    17a4:	bf 2b       	or	r27, r31
    17a6:	11 f4       	brne	.+4      	; 0x17ac <__fp_round+0x18>
    17a8:	60 ff       	sbrs	r22, 0
    17aa:	04 c0       	rjmp	.+8      	; 0x17b4 <__fp_round+0x20>
    17ac:	6f 5f       	subi	r22, 0xFF	; 255
    17ae:	7f 4f       	sbci	r23, 0xFF	; 255
    17b0:	8f 4f       	sbci	r24, 0xFF	; 255
    17b2:	9f 4f       	sbci	r25, 0xFF	; 255
    17b4:	08 95       	ret

000017b6 <__fp_split3>:
    17b6:	57 fd       	sbrc	r21, 7
    17b8:	90 58       	subi	r25, 0x80	; 128
    17ba:	44 0f       	add	r20, r20
    17bc:	55 1f       	adc	r21, r21
    17be:	59 f0       	breq	.+22     	; 0x17d6 <__fp_splitA+0x10>
    17c0:	5f 3f       	cpi	r21, 0xFF	; 255
    17c2:	71 f0       	breq	.+28     	; 0x17e0 <__fp_splitA+0x1a>
    17c4:	47 95       	ror	r20

000017c6 <__fp_splitA>:
    17c6:	88 0f       	add	r24, r24
    17c8:	97 fb       	bst	r25, 7
    17ca:	99 1f       	adc	r25, r25
    17cc:	61 f0       	breq	.+24     	; 0x17e6 <__fp_splitA+0x20>
    17ce:	9f 3f       	cpi	r25, 0xFF	; 255
    17d0:	79 f0       	breq	.+30     	; 0x17f0 <__fp_splitA+0x2a>
    17d2:	87 95       	ror	r24
    17d4:	08 95       	ret
    17d6:	12 16       	cp	r1, r18
    17d8:	13 06       	cpc	r1, r19
    17da:	14 06       	cpc	r1, r20
    17dc:	55 1f       	adc	r21, r21
    17de:	f2 cf       	rjmp	.-28     	; 0x17c4 <__fp_split3+0xe>
    17e0:	46 95       	lsr	r20
    17e2:	f1 df       	rcall	.-30     	; 0x17c6 <__fp_splitA>
    17e4:	08 c0       	rjmp	.+16     	; 0x17f6 <__fp_splitA+0x30>
    17e6:	16 16       	cp	r1, r22
    17e8:	17 06       	cpc	r1, r23
    17ea:	18 06       	cpc	r1, r24
    17ec:	99 1f       	adc	r25, r25
    17ee:	f1 cf       	rjmp	.-30     	; 0x17d2 <__fp_splitA+0xc>
    17f0:	86 95       	lsr	r24
    17f2:	71 05       	cpc	r23, r1
    17f4:	61 05       	cpc	r22, r1
    17f6:	08 94       	sec
    17f8:	08 95       	ret

000017fa <__fp_trunc>:
    17fa:	e5 df       	rcall	.-54     	; 0x17c6 <__fp_splitA>
    17fc:	a0 f0       	brcs	.+40     	; 0x1826 <__fp_trunc+0x2c>
    17fe:	be e7       	ldi	r27, 0x7E	; 126
    1800:	b9 17       	cp	r27, r25
    1802:	88 f4       	brcc	.+34     	; 0x1826 <__fp_trunc+0x2c>
    1804:	bb 27       	eor	r27, r27
    1806:	9f 38       	cpi	r25, 0x8F	; 143
    1808:	60 f4       	brcc	.+24     	; 0x1822 <__fp_trunc+0x28>
    180a:	16 16       	cp	r1, r22
    180c:	b1 1d       	adc	r27, r1
    180e:	67 2f       	mov	r22, r23
    1810:	78 2f       	mov	r23, r24
    1812:	88 27       	eor	r24, r24
    1814:	98 5f       	subi	r25, 0xF8	; 248
    1816:	f7 cf       	rjmp	.-18     	; 0x1806 <__fp_trunc+0xc>
    1818:	86 95       	lsr	r24
    181a:	77 95       	ror	r23
    181c:	67 95       	ror	r22
    181e:	b1 1d       	adc	r27, r1
    1820:	93 95       	inc	r25
    1822:	96 39       	cpi	r25, 0x96	; 150
    1824:	c8 f3       	brcs	.-14     	; 0x1818 <__fp_trunc+0x1e>
    1826:	08 95       	ret

00001828 <__fp_zero>:
    1828:	e8 94       	clt

0000182a <__fp_szero>:
    182a:	bb 27       	eor	r27, r27
    182c:	66 27       	eor	r22, r22
    182e:	77 27       	eor	r23, r23
    1830:	cb 01       	movw	r24, r22
    1832:	97 f9       	bld	r25, 7
    1834:	08 95       	ret

00001836 <__gesf2>:
    1836:	4a df       	rcall	.-364    	; 0x16cc <__fp_cmp>
    1838:	08 f4       	brcc	.+2      	; 0x183c <__gesf2+0x6>
    183a:	8f ef       	ldi	r24, 0xFF	; 255
    183c:	08 95       	ret

0000183e <__mulsf3>:
    183e:	0b d0       	rcall	.+22     	; 0x1856 <__mulsf3x>
    1840:	a9 cf       	rjmp	.-174    	; 0x1794 <__fp_round>
    1842:	9a df       	rcall	.-204    	; 0x1778 <__fp_pscA>
    1844:	28 f0       	brcs	.+10     	; 0x1850 <__mulsf3+0x12>
    1846:	9f df       	rcall	.-194    	; 0x1786 <__fp_pscB>
    1848:	18 f0       	brcs	.+6      	; 0x1850 <__mulsf3+0x12>
    184a:	95 23       	and	r25, r21
    184c:	09 f0       	breq	.+2      	; 0x1850 <__mulsf3+0x12>
    184e:	62 cf       	rjmp	.-316    	; 0x1714 <__fp_inf>
    1850:	90 cf       	rjmp	.-224    	; 0x1772 <__fp_nan>
    1852:	11 24       	eor	r1, r1
    1854:	ea cf       	rjmp	.-44     	; 0x182a <__fp_szero>

00001856 <__mulsf3x>:
    1856:	af df       	rcall	.-162    	; 0x17b6 <__fp_split3>
    1858:	a0 f3       	brcs	.-24     	; 0x1842 <__mulsf3+0x4>

0000185a <__mulsf3_pse>:
    185a:	95 9f       	mul	r25, r21
    185c:	d1 f3       	breq	.-12     	; 0x1852 <__mulsf3+0x14>
    185e:	95 0f       	add	r25, r21
    1860:	50 e0       	ldi	r21, 0x00	; 0
    1862:	55 1f       	adc	r21, r21
    1864:	62 9f       	mul	r22, r18
    1866:	f0 01       	movw	r30, r0
    1868:	72 9f       	mul	r23, r18
    186a:	bb 27       	eor	r27, r27
    186c:	f0 0d       	add	r31, r0
    186e:	b1 1d       	adc	r27, r1
    1870:	63 9f       	mul	r22, r19
    1872:	aa 27       	eor	r26, r26
    1874:	f0 0d       	add	r31, r0
    1876:	b1 1d       	adc	r27, r1
    1878:	aa 1f       	adc	r26, r26
    187a:	64 9f       	mul	r22, r20
    187c:	66 27       	eor	r22, r22
    187e:	b0 0d       	add	r27, r0
    1880:	a1 1d       	adc	r26, r1
    1882:	66 1f       	adc	r22, r22
    1884:	82 9f       	mul	r24, r18
    1886:	22 27       	eor	r18, r18
    1888:	b0 0d       	add	r27, r0
    188a:	a1 1d       	adc	r26, r1
    188c:	62 1f       	adc	r22, r18
    188e:	73 9f       	mul	r23, r19
    1890:	b0 0d       	add	r27, r0
    1892:	a1 1d       	adc	r26, r1
    1894:	62 1f       	adc	r22, r18
    1896:	83 9f       	mul	r24, r19
    1898:	a0 0d       	add	r26, r0
    189a:	61 1d       	adc	r22, r1
    189c:	22 1f       	adc	r18, r18
    189e:	74 9f       	mul	r23, r20
    18a0:	33 27       	eor	r19, r19
    18a2:	a0 0d       	add	r26, r0
    18a4:	61 1d       	adc	r22, r1
    18a6:	23 1f       	adc	r18, r19
    18a8:	84 9f       	mul	r24, r20
    18aa:	60 0d       	add	r22, r0
    18ac:	21 1d       	adc	r18, r1
    18ae:	82 2f       	mov	r24, r18
    18b0:	76 2f       	mov	r23, r22
    18b2:	6a 2f       	mov	r22, r26
    18b4:	11 24       	eor	r1, r1
    18b6:	9f 57       	subi	r25, 0x7F	; 127
    18b8:	50 40       	sbci	r21, 0x00	; 0
    18ba:	8a f0       	brmi	.+34     	; 0x18de <__mulsf3_pse+0x84>
    18bc:	e1 f0       	breq	.+56     	; 0x18f6 <__mulsf3_pse+0x9c>
    18be:	88 23       	and	r24, r24
    18c0:	4a f0       	brmi	.+18     	; 0x18d4 <__mulsf3_pse+0x7a>
    18c2:	ee 0f       	add	r30, r30
    18c4:	ff 1f       	adc	r31, r31
    18c6:	bb 1f       	adc	r27, r27
    18c8:	66 1f       	adc	r22, r22
    18ca:	77 1f       	adc	r23, r23
    18cc:	88 1f       	adc	r24, r24
    18ce:	91 50       	subi	r25, 0x01	; 1
    18d0:	50 40       	sbci	r21, 0x00	; 0
    18d2:	a9 f7       	brne	.-22     	; 0x18be <__mulsf3_pse+0x64>
    18d4:	9e 3f       	cpi	r25, 0xFE	; 254
    18d6:	51 05       	cpc	r21, r1
    18d8:	70 f0       	brcs	.+28     	; 0x18f6 <__mulsf3_pse+0x9c>
    18da:	1c cf       	rjmp	.-456    	; 0x1714 <__fp_inf>
    18dc:	a6 cf       	rjmp	.-180    	; 0x182a <__fp_szero>
    18de:	5f 3f       	cpi	r21, 0xFF	; 255
    18e0:	ec f3       	brlt	.-6      	; 0x18dc <__mulsf3_pse+0x82>
    18e2:	98 3e       	cpi	r25, 0xE8	; 232
    18e4:	dc f3       	brlt	.-10     	; 0x18dc <__mulsf3_pse+0x82>
    18e6:	86 95       	lsr	r24
    18e8:	77 95       	ror	r23
    18ea:	67 95       	ror	r22
    18ec:	b7 95       	ror	r27
    18ee:	f7 95       	ror	r31
    18f0:	e7 95       	ror	r30
    18f2:	9f 5f       	subi	r25, 0xFF	; 255
    18f4:	c1 f7       	brne	.-16     	; 0x18e6 <__mulsf3_pse+0x8c>
    18f6:	fe 2b       	or	r31, r30
    18f8:	88 0f       	add	r24, r24
    18fa:	91 1d       	adc	r25, r1
    18fc:	96 95       	lsr	r25
    18fe:	87 95       	ror	r24
    1900:	97 f9       	bld	r25, 7
    1902:	08 95       	ret

00001904 <__udivmodqi4>:
    1904:	99 1b       	sub	r25, r25
    1906:	79 e0       	ldi	r23, 0x09	; 9
    1908:	04 c0       	rjmp	.+8      	; 0x1912 <__udivmodqi4_ep>

0000190a <__udivmodqi4_loop>:
    190a:	99 1f       	adc	r25, r25
    190c:	96 17       	cp	r25, r22
    190e:	08 f0       	brcs	.+2      	; 0x1912 <__udivmodqi4_ep>
    1910:	96 1b       	sub	r25, r22

00001912 <__udivmodqi4_ep>:
    1912:	88 1f       	adc	r24, r24
    1914:	7a 95       	dec	r23
    1916:	c9 f7       	brne	.-14     	; 0x190a <__udivmodqi4_loop>
    1918:	80 95       	com	r24
    191a:	08 95       	ret

0000191c <__divmodhi4>:
    191c:	97 fb       	bst	r25, 7
    191e:	09 2e       	mov	r0, r25
    1920:	07 26       	eor	r0, r23
    1922:	0a d0       	rcall	.+20     	; 0x1938 <__divmodhi4_neg1>
    1924:	77 fd       	sbrc	r23, 7
    1926:	04 d0       	rcall	.+8      	; 0x1930 <__divmodhi4_neg2>
    1928:	0c d0       	rcall	.+24     	; 0x1942 <__udivmodhi4>
    192a:	06 d0       	rcall	.+12     	; 0x1938 <__divmodhi4_neg1>
    192c:	00 20       	and	r0, r0
    192e:	1a f4       	brpl	.+6      	; 0x1936 <__divmodhi4_exit>

00001930 <__divmodhi4_neg2>:
    1930:	70 95       	com	r23
    1932:	61 95       	neg	r22
    1934:	7f 4f       	sbci	r23, 0xFF	; 255

00001936 <__divmodhi4_exit>:
    1936:	08 95       	ret

00001938 <__divmodhi4_neg1>:
    1938:	f6 f7       	brtc	.-4      	; 0x1936 <__divmodhi4_exit>
    193a:	90 95       	com	r25
    193c:	81 95       	neg	r24
    193e:	9f 4f       	sbci	r25, 0xFF	; 255
    1940:	08 95       	ret

00001942 <__udivmodhi4>:
    1942:	aa 1b       	sub	r26, r26
    1944:	bb 1b       	sub	r27, r27
    1946:	51 e1       	ldi	r21, 0x11	; 17
    1948:	07 c0       	rjmp	.+14     	; 0x1958 <__udivmodhi4_ep>

0000194a <__udivmodhi4_loop>:
    194a:	aa 1f       	adc	r26, r26
    194c:	bb 1f       	adc	r27, r27
    194e:	a6 17       	cp	r26, r22
    1950:	b7 07       	cpc	r27, r23
    1952:	10 f0       	brcs	.+4      	; 0x1958 <__udivmodhi4_ep>
    1954:	a6 1b       	sub	r26, r22
    1956:	b7 0b       	sbc	r27, r23

00001958 <__udivmodhi4_ep>:
    1958:	88 1f       	adc	r24, r24
    195a:	99 1f       	adc	r25, r25
    195c:	5a 95       	dec	r21
    195e:	a9 f7       	brne	.-22     	; 0x194a <__udivmodhi4_loop>
    1960:	80 95       	com	r24
    1962:	90 95       	com	r25
    1964:	bc 01       	movw	r22, r24
    1966:	cd 01       	movw	r24, r26
    1968:	08 95       	ret

0000196a <__eerd_block_m16a>:
    196a:	dc 01       	movw	r26, r24
    196c:	cb 01       	movw	r24, r22

0000196e <__eerd_blraw_m16a>:
    196e:	fc 01       	movw	r30, r24
    1970:	e1 99       	sbic	0x1c, 1	; 28
    1972:	fe cf       	rjmp	.-4      	; 0x1970 <__eerd_blraw_m16a+0x2>
    1974:	06 c0       	rjmp	.+12     	; 0x1982 <__eerd_blraw_m16a+0x14>
    1976:	ff bb       	out	0x1f, r31	; 31
    1978:	ee bb       	out	0x1e, r30	; 30
    197a:	e0 9a       	sbi	0x1c, 0	; 28
    197c:	31 96       	adiw	r30, 0x01	; 1
    197e:	0d b2       	in	r0, 0x1d	; 29
    1980:	0d 92       	st	X+, r0
    1982:	41 50       	subi	r20, 0x01	; 1
    1984:	50 40       	sbci	r21, 0x00	; 0
    1986:	b8 f7       	brcc	.-18     	; 0x1976 <__eerd_blraw_m16a+0x8>
    1988:	08 95       	ret

0000198a <__eeupd_block_m16a>:
    198a:	dc 01       	movw	r26, r24
    198c:	a4 0f       	add	r26, r20
    198e:	b5 1f       	adc	r27, r21
    1990:	41 50       	subi	r20, 0x01	; 1
    1992:	50 40       	sbci	r21, 0x00	; 0
    1994:	48 f0       	brcs	.+18     	; 0x19a8 <__eeupd_block_m16a+0x1e>
    1996:	cb 01       	movw	r24, r22
    1998:	84 0f       	add	r24, r20
    199a:	95 1f       	adc	r25, r21
    199c:	2e 91       	ld	r18, -X
    199e:	0e 94 d6 0c 	call	0x19ac	; 0x19ac <__eeupd_r18_m16a>
    19a2:	41 50       	subi	r20, 0x01	; 1
    19a4:	50 40       	sbci	r21, 0x00	; 0
    19a6:	d0 f7       	brcc	.-12     	; 0x199c <__eeupd_block_m16a+0x12>
    19a8:	08 95       	ret

000019aa <__eeupd_byte_m16a>:
    19aa:	26 2f       	mov	r18, r22

000019ac <__eeupd_r18_m16a>:
    19ac:	e1 99       	sbic	0x1c, 1	; 28
    19ae:	fe cf       	rjmp	.-4      	; 0x19ac <__eeupd_r18_m16a>
    19b0:	9f bb       	out	0x1f, r25	; 31
    19b2:	8e bb       	out	0x1e, r24	; 30
    19b4:	e0 9a       	sbi	0x1c, 0	; 28
    19b6:	01 97       	sbiw	r24, 0x01	; 1
    19b8:	0d b2       	in	r0, 0x1d	; 29
    19ba:	02 16       	cp	r0, r18
    19bc:	31 f0       	breq	.+12     	; 0x19ca <__eeupd_r18_m16a+0x1e>
    19be:	2d bb       	out	0x1d, r18	; 29
    19c0:	0f b6       	in	r0, 0x3f	; 63
    19c2:	f8 94       	cli
    19c4:	e2 9a       	sbi	0x1c, 2	; 28
    19c6:	e1 9a       	sbi	0x1c, 1	; 28
    19c8:	0f be       	out	0x3f, r0	; 63
    19ca:	08 95       	ret

000019cc <_exit>:
    19cc:	f8 94       	cli

000019ce <__stop_program>:
    19ce:	ff cf       	rjmp	.-2      	; 0x19ce <__stop_program>
