
tc_new.elf:     file format elf32-avr

Sections:
Idx Name          Size      VMA       LMA       File off  Algn
  0 .text         000019ae  00000000  00000000  000000b4  2**1
                  CONTENTS, ALLOC, LOAD, READONLY, CODE
  1 .data         00000036  00800060  000019ae  00001a62  2**0
                  CONTENTS, ALLOC, LOAD, DATA
  2 .bss          0000007f  00800096  00800096  00001a98  2**0
                  ALLOC
  3 .eeprom       00000040  00810000  00810000  00001a98  2**0
                  CONTENTS, ALLOC, LOAD, DATA
  4 .stab         00002160  00000000  00000000  00001ad8  2**2
                  CONTENTS, READONLY, DEBUGGING
  5 .stabstr      000009f6  00000000  00000000  00003c38  2**0
                  CONTENTS, READONLY, DEBUGGING

Disassembly of section .text:

00000000 <__vectors>:
       0:	0c 94 2a 00 	jmp	0x54	; 0x54 <__ctors_end>
       4:	0c 94 47 00 	jmp	0x8e	; 0x8e <__bad_interrupt>
       8:	0c 94 07 07 	jmp	0xe0e	; 0xe0e <__vector_2>
       c:	0c 94 47 00 	jmp	0x8e	; 0x8e <__bad_interrupt>
      10:	0c 94 4d 03 	jmp	0x69a	; 0x69a <__vector_4>
      14:	0c 94 47 00 	jmp	0x8e	; 0x8e <__bad_interrupt>
      18:	0c 94 47 00 	jmp	0x8e	; 0x8e <__bad_interrupt>
      1c:	0c 94 47 00 	jmp	0x8e	; 0x8e <__bad_interrupt>
      20:	0c 94 80 02 	jmp	0x500	; 0x500 <__vector_8>
      24:	0c 94 24 07 	jmp	0xe48	; 0xe48 <__vector_9>
      28:	0c 94 47 00 	jmp	0x8e	; 0x8e <__bad_interrupt>
      2c:	0c 94 47 00 	jmp	0x8e	; 0x8e <__bad_interrupt>
      30:	0c 94 47 00 	jmp	0x8e	; 0x8e <__bad_interrupt>
      34:	0c 94 47 00 	jmp	0x8e	; 0x8e <__bad_interrupt>
      38:	0c 94 47 00 	jmp	0x8e	; 0x8e <__bad_interrupt>
      3c:	0c 94 47 00 	jmp	0x8e	; 0x8e <__bad_interrupt>
      40:	0c 94 47 00 	jmp	0x8e	; 0x8e <__bad_interrupt>
      44:	0c 94 47 00 	jmp	0x8e	; 0x8e <__bad_interrupt>
      48:	0c 94 47 00 	jmp	0x8e	; 0x8e <__bad_interrupt>
      4c:	0c 94 47 00 	jmp	0x8e	; 0x8e <__bad_interrupt>
      50:	0c 94 47 00 	jmp	0x8e	; 0x8e <__bad_interrupt>

00000054 <__ctors_end>:
      54:	11 24       	eor	r1, r1
      56:	1f be       	out	0x3f, r1	; 63
      58:	cf e5       	ldi	r28, 0x5F	; 95
      5a:	d4 e0       	ldi	r29, 0x04	; 4
      5c:	de bf       	out	0x3e, r29	; 62
      5e:	cd bf       	out	0x3d, r28	; 61

00000060 <__do_copy_data>:
      60:	10 e0       	ldi	r17, 0x00	; 0
      62:	a0 e6       	ldi	r26, 0x60	; 96
      64:	b0 e0       	ldi	r27, 0x00	; 0
      66:	ee ea       	ldi	r30, 0xAE	; 174
      68:	f9 e1       	ldi	r31, 0x19	; 25
      6a:	02 c0       	rjmp	.+4      	; 0x70 <__do_copy_data+0x10>
      6c:	05 90       	lpm	r0, Z+
      6e:	0d 92       	st	X+, r0
      70:	a6 39       	cpi	r26, 0x96	; 150
      72:	b1 07       	cpc	r27, r17
      74:	d9 f7       	brne	.-10     	; 0x6c <__do_copy_data+0xc>

00000076 <__do_clear_bss>:
      76:	11 e0       	ldi	r17, 0x01	; 1
      78:	a6 e9       	ldi	r26, 0x96	; 150
      7a:	b0 e0       	ldi	r27, 0x00	; 0
      7c:	01 c0       	rjmp	.+2      	; 0x80 <.do_clear_bss_start>

0000007e <.do_clear_bss_loop>:
      7e:	1d 92       	st	X+, r1

00000080 <.do_clear_bss_start>:
      80:	a5 31       	cpi	r26, 0x15	; 21
      82:	b1 07       	cpc	r27, r17
      84:	e1 f7       	brne	.-8      	; 0x7e <.do_clear_bss_loop>
      86:	0e 94 44 0a 	call	0x1488	; 0x1488 <main>
      8a:	0c 94 d5 0c 	jmp	0x19aa	; 0x19aa <_exit>

0000008e <__bad_interrupt>:
      8e:	0c 94 00 00 	jmp	0	; 0x0 <__vectors>

00000092 <change_temp_order>:
      92:	cf 93       	push	r28
      94:	df 93       	push	r29
      96:	90 e0       	ldi	r25, 0x00	; 0
      98:	ec 01       	movw	r28, r24
      9a:	cc 0f       	add	r28, r28
      9c:	dd 1f       	adc	r29, r29
      9e:	ce 57       	subi	r28, 0x7E	; 126
      a0:	df 4f       	sbci	r29, 0xFF	; 255
      a2:	28 81       	ld	r18, Y
      a4:	39 81       	ldd	r19, Y+1	; 0x01
      a6:	70 e0       	ldi	r23, 0x00	; 0
      a8:	db 01       	movw	r26, r22
      aa:	aa 0f       	add	r26, r26
      ac:	bb 1f       	adc	r27, r27
      ae:	ae 57       	subi	r26, 0x7E	; 126
      b0:	bf 4f       	sbci	r27, 0xFF	; 255
      b2:	4d 91       	ld	r20, X+
      b4:	5c 91       	ld	r21, X
      b6:	11 97       	sbiw	r26, 0x01	; 1
      b8:	59 83       	std	Y+1, r21	; 0x01
      ba:	48 83       	st	Y, r20
      bc:	2d 93       	st	X+, r18
      be:	3c 93       	st	X, r19
      c0:	fc 01       	movw	r30, r24
      c2:	93 e0       	ldi	r25, 0x03	; 3
      c4:	ee 0f       	add	r30, r30
      c6:	ff 1f       	adc	r31, r31
      c8:	9a 95       	dec	r25
      ca:	e1 f7       	brne	.-8      	; 0xc4 <change_temp_order+0x32>
      cc:	e6 54       	subi	r30, 0x46	; 70
      ce:	ff 4f       	sbci	r31, 0xFF	; 255
      d0:	83 e0       	ldi	r24, 0x03	; 3
      d2:	66 0f       	add	r22, r22
      d4:	77 1f       	adc	r23, r23
      d6:	8a 95       	dec	r24
      d8:	e1 f7       	brne	.-8      	; 0xd2 <change_temp_order+0x40>
      da:	db 01       	movw	r26, r22
      dc:	a6 54       	subi	r26, 0x46	; 70
      de:	bf 4f       	sbci	r27, 0xFF	; 255
      e0:	6e 53       	subi	r22, 0x3E	; 62
      e2:	7f 4f       	sbci	r23, 0xFF	; 255
      e4:	80 81       	ld	r24, Z
      e6:	9c 91       	ld	r25, X
      e8:	91 93       	st	Z+, r25
      ea:	8d 93       	st	X+, r24
      ec:	a6 17       	cp	r26, r22
      ee:	b7 07       	cpc	r27, r23
      f0:	c9 f7       	brne	.-14     	; 0xe4 <change_temp_order+0x52>
      f2:	df 91       	pop	r29
      f4:	cf 91       	pop	r28
      f6:	08 95       	ret

000000f8 <sel_query_sel>:
      f8:	1f 93       	push	r17
      fa:	cf 93       	push	r28
      fc:	df 93       	push	r29
      fe:	18 2f       	mov	r17, r24
     100:	80 93 b4 00 	sts	0x00B4, r24
     104:	c0 e0       	ldi	r28, 0x00	; 0
     106:	d0 e0       	ldi	r29, 0x00	; 0
     108:	ce 01       	movw	r24, r28
     10a:	1c 17       	cp	r17, r28
     10c:	21 f0       	breq	.+8      	; 0x116 <sel_query_sel+0x1e>
     10e:	60 e0       	ldi	r22, 0x00	; 0
     110:	70 e0       	ldi	r23, 0x00	; 0
     112:	0e 94 2d 01 	call	0x25a	; 0x25a <setReleValue>
     116:	21 96       	adiw	r28, 0x01	; 1
     118:	c6 30       	cpi	r28, 0x06	; 6
     11a:	d1 05       	cpc	r29, r1
     11c:	a9 f7       	brne	.-22     	; 0x108 <sel_query_sel+0x10>
     11e:	11 23       	and	r17, r17
     120:	29 f4       	brne	.+10     	; 0x12c <sel_query_sel+0x34>
     122:	80 e0       	ldi	r24, 0x00	; 0
     124:	90 e0       	ldi	r25, 0x00	; 0
     126:	64 e6       	ldi	r22, 0x64	; 100
     128:	70 e0       	ldi	r23, 0x00	; 0
     12a:	04 c0       	rjmp	.+8      	; 0x134 <sel_query_sel+0x3c>
     12c:	81 2f       	mov	r24, r17
     12e:	90 e0       	ldi	r25, 0x00	; 0
     130:	61 e0       	ldi	r22, 0x01	; 1
     132:	70 e0       	ldi	r23, 0x00	; 0
     134:	0e 94 2d 01 	call	0x25a	; 0x25a <setReleValue>
     138:	10 92 b5 00 	sts	0x00B5, r1
     13c:	0e 94 a4 00 	call	0x148	; 0x148 <redraw_query_led>
     140:	df 91       	pop	r29
     142:	cf 91       	pop	r28
     144:	1f 91       	pop	r17
     146:	08 95       	ret

00000148 <redraw_query_led>:
     148:	1f 93       	push	r17
     14a:	cf 93       	push	r28
     14c:	df 93       	push	r29
     14e:	e0 91 b4 00 	lds	r30, 0x00B4
     152:	f0 e0       	ldi	r31, 0x00	; 0
     154:	ee 0f       	add	r30, r30
     156:	ff 1f       	adc	r31, r31
     158:	ee 0f       	add	r30, r30
     15a:	ff 1f       	adc	r31, r31
     15c:	e3 50       	subi	r30, 0x03	; 3
     15e:	ff 4f       	sbci	r31, 0xFF	; 255
     160:	90 81       	ld	r25, Z
     162:	e9 2f       	mov	r30, r25
     164:	ee 0f       	add	r30, r30
     166:	e9 0f       	add	r30, r25
     168:	80 91 b5 00 	lds	r24, 0x00B5
     16c:	88 23       	and	r24, r24
     16e:	19 f0       	breq	.+6      	; 0x176 <redraw_query_led+0x2e>
     170:	81 30       	cpi	r24, 0x01	; 1
     172:	89 f4       	brne	.+34     	; 0x196 <redraw_query_led+0x4e>
     174:	07 c0       	rjmp	.+14     	; 0x184 <redraw_query_led+0x3c>
     176:	8f ef       	ldi	r24, 0xFF	; 255
     178:	80 93 60 00 	sts	0x0060, r24
     17c:	81 e0       	ldi	r24, 0x01	; 1
     17e:	80 93 9e 00 	sts	0x009E, r24
     182:	1e c0       	rjmp	.+60     	; 0x1c0 <redraw_query_led+0x78>
     184:	10 92 9e 00 	sts	0x009E, r1
     188:	90 93 60 00 	sts	0x0060, r25
     18c:	95 30       	cpi	r25, 0x05	; 5
     18e:	c0 f0       	brcs	.+48     	; 0x1c0 <redraw_query_led+0x78>
     190:	10 92 60 00 	sts	0x0060, r1
     194:	15 c0       	rjmp	.+42     	; 0x1c0 <redraw_query_led+0x78>
     196:	9f ef       	ldi	r25, 0xFF	; 255
     198:	90 93 60 00 	sts	0x0060, r25
     19c:	10 92 9e 00 	sts	0x009E, r1
     1a0:	82 30       	cpi	r24, 0x02	; 2
     1a2:	19 f0       	breq	.+6      	; 0x1aa <redraw_query_led+0x62>
     1a4:	83 30       	cpi	r24, 0x03	; 3
     1a6:	61 f4       	brne	.+24     	; 0x1c0 <redraw_query_led+0x78>
     1a8:	05 c0       	rjmp	.+10     	; 0x1b4 <redraw_query_led+0x6c>
     1aa:	e0 93 61 00 	sts	0x0061, r30
     1ae:	90 93 62 00 	sts	0x0062, r25
     1b2:	0b c0       	rjmp	.+22     	; 0x1ca <redraw_query_led+0x82>
     1b4:	8e 2f       	mov	r24, r30
     1b6:	8f 5f       	subi	r24, 0xFF	; 255
     1b8:	80 93 61 00 	sts	0x0061, r24
     1bc:	8f 5f       	subi	r24, 0xFF	; 255
     1be:	03 c0       	rjmp	.+6      	; 0x1c6 <redraw_query_led+0x7e>
     1c0:	8f ef       	ldi	r24, 0xFF	; 255
     1c2:	80 93 61 00 	sts	0x0061, r24
     1c6:	80 93 62 00 	sts	0x0062, r24
     1ca:	f0 e0       	ldi	r31, 0x00	; 0
     1cc:	40 91 b4 00 	lds	r20, 0x00B4
     1d0:	24 2f       	mov	r18, r20
     1d2:	30 e0       	ldi	r19, 0x00	; 0
     1d4:	ef 01       	movw	r28, r30
     1d6:	ce 51       	subi	r28, 0x1E	; 30
     1d8:	df 4f       	sbci	r29, 0xFF	; 255
     1da:	d9 01       	movw	r26, r18
     1dc:	aa 0f       	add	r26, r26
     1de:	bb 1f       	adc	r27, r27
     1e0:	aa 0f       	add	r26, r26
     1e2:	bb 1f       	adc	r27, r27
     1e4:	a3 50       	subi	r26, 0x03	; 3
     1e6:	bf 4f       	sbci	r27, 0xFF	; 255
     1e8:	11 96       	adiw	r26, 0x01	; 1
     1ea:	8c 91       	ld	r24, X
     1ec:	11 97       	sbiw	r26, 0x01	; 1
     1ee:	8f 5e       	subi	r24, 0xEF	; 239
     1f0:	88 83       	st	Y, r24
     1f2:	12 96       	adiw	r26, 0x02	; 2
     1f4:	1c 91       	ld	r17, X
     1f6:	81 2f       	mov	r24, r17
     1f8:	90 e0       	ldi	r25, 0x00	; 0
     1fa:	6a e0       	ldi	r22, 0x0A	; 10
     1fc:	70 e0       	ldi	r23, 0x00	; 0
     1fe:	0e 94 7d 0c 	call	0x18fa	; 0x18fa <__divmodhi4>
     202:	86 2f       	mov	r24, r22
     204:	c6 ef       	ldi	r28, 0xF6	; 246
     206:	df ef       	ldi	r29, 0xFF	; 255
     208:	6c 9f       	mul	r22, r28
     20a:	d0 01       	movw	r26, r0
     20c:	6d 9f       	mul	r22, r29
     20e:	b0 0d       	add	r27, r0
     210:	7c 9f       	mul	r23, r28
     212:	b0 0d       	add	r27, r0
     214:	11 24       	eor	r1, r1
     216:	a1 0f       	add	r26, r17
     218:	66 23       	and	r22, r22
     21a:	09 f4       	brne	.+2      	; 0x21e <redraw_query_led+0xd6>
     21c:	80 e1       	ldi	r24, 0x10	; 16
     21e:	ee 51       	subi	r30, 0x1E	; 30
     220:	ff 4f       	sbci	r31, 0xFF	; 255
     222:	81 83       	std	Z+1, r24	; 0x01
     224:	a2 83       	std	Z+2, r26	; 0x02
     226:	f9 01       	movw	r30, r18
     228:	ee 0f       	add	r30, r30
     22a:	ff 1f       	adc	r31, r31
     22c:	ee 0f       	add	r30, r30
     22e:	ff 1f       	adc	r31, r31
     230:	e3 50       	subi	r30, 0x03	; 3
     232:	ff 4f       	sbci	r31, 0xFF	; 255
     234:	20 81       	ld	r18, Z
     236:	e2 ee       	ldi	r30, 0xE2	; 226
     238:	f0 e0       	ldi	r31, 0x00	; 0
     23a:	80 e0       	ldi	r24, 0x00	; 0
     23c:	4f 5d       	subi	r20, 0xDF	; 223
     23e:	90 e1       	ldi	r25, 0x10	; 16
     240:	28 17       	cp	r18, r24
     242:	19 f0       	breq	.+6      	; 0x24a <redraw_query_led+0x102>
     244:	40 83       	st	Z, r20
     246:	91 83       	std	Z+1, r25	; 0x01
     248:	92 83       	std	Z+2, r25	; 0x02
     24a:	8f 5f       	subi	r24, 0xFF	; 255
     24c:	33 96       	adiw	r30, 0x03	; 3
     24e:	85 30       	cpi	r24, 0x05	; 5
     250:	b9 f7       	brne	.-18     	; 0x240 <redraw_query_led+0xf8>
     252:	df 91       	pop	r29
     254:	cf 91       	pop	r28
     256:	1f 91       	pop	r17
     258:	08 95       	ret

0000025a <setReleValue>:
     25a:	82 30       	cpi	r24, 0x02	; 2
     25c:	b1 f0       	breq	.+44     	; 0x28a <setReleValue+0x30>
     25e:	83 30       	cpi	r24, 0x03	; 3
     260:	28 f4       	brcc	.+10     	; 0x26c <setReleValue+0x12>
     262:	88 23       	and	r24, r24
     264:	51 f0       	breq	.+20     	; 0x27a <setReleValue+0x20>
     266:	81 30       	cpi	r24, 0x01	; 1
     268:	f1 f4       	brne	.+60     	; 0x2a6 <setReleValue+0x4c>
     26a:	09 c0       	rjmp	.+18     	; 0x27e <setReleValue+0x24>
     26c:	84 30       	cpi	r24, 0x04	; 4
     26e:	b1 f0       	breq	.+44     	; 0x29c <setReleValue+0x42>
     270:	84 30       	cpi	r24, 0x04	; 4
     272:	88 f0       	brcs	.+34     	; 0x296 <setReleValue+0x3c>
     274:	85 30       	cpi	r24, 0x05	; 5
     276:	b9 f4       	brne	.+46     	; 0x2a6 <setReleValue+0x4c>
     278:	14 c0       	rjmp	.+40     	; 0x2a2 <setReleValue+0x48>
     27a:	6c bf       	out	0x3c, r22	; 60
     27c:	08 95       	ret
     27e:	66 23       	and	r22, r22
     280:	11 f0       	breq	.+4      	; 0x286 <setReleValue+0x2c>
     282:	d8 9a       	sbi	0x1b, 0	; 27
     284:	08 95       	ret
     286:	d8 98       	cbi	0x1b, 0	; 27
     288:	08 95       	ret
     28a:	66 23       	and	r22, r22
     28c:	11 f0       	breq	.+4      	; 0x292 <setReleValue+0x38>
     28e:	d9 9a       	sbi	0x1b, 1	; 27
     290:	08 95       	ret
     292:	d9 98       	cbi	0x1b, 1	; 27
     294:	08 95       	ret
     296:	60 93 a0 00 	sts	0x00A0, r22
     29a:	08 95       	ret
     29c:	60 93 a1 00 	sts	0x00A1, r22
     2a0:	08 95       	ret
     2a2:	60 93 a2 00 	sts	0x00A2, r22
     2a6:	08 95       	ret

000002a8 <clearReleValues>:
     2a8:	1f 93       	push	r17
     2aa:	10 e0       	ldi	r17, 0x00	; 0
     2ac:	81 2f       	mov	r24, r17
     2ae:	60 e0       	ldi	r22, 0x00	; 0
     2b0:	0e 94 2d 01 	call	0x25a	; 0x25a <setReleValue>
     2b4:	1f 5f       	subi	r17, 0xFF	; 255
     2b6:	16 30       	cpi	r17, 0x06	; 6
     2b8:	c9 f7       	brne	.-14     	; 0x2ac <clearReleValues+0x4>
     2ba:	1f 91       	pop	r17
     2bc:	08 95       	ret

000002be <save_props>:
     2be:	8a eb       	ldi	r24, 0xBA	; 186
     2c0:	90 e0       	ldi	r25, 0x00	; 0
     2c2:	60 e0       	ldi	r22, 0x00	; 0
     2c4:	70 e0       	ldi	r23, 0x00	; 0
     2c6:	48 e2       	ldi	r20, 0x28	; 40
     2c8:	50 e0       	ldi	r21, 0x00	; 0
     2ca:	0e 94 b4 0c 	call	0x1968	; 0x1968 <__eeupd_block_m16a>
     2ce:	8d ef       	ldi	r24, 0xFD	; 253
     2d0:	90 e0       	ldi	r25, 0x00	; 0
     2d2:	68 e2       	ldi	r22, 0x28	; 40
     2d4:	70 e0       	ldi	r23, 0x00	; 0
     2d6:	48 e1       	ldi	r20, 0x18	; 24
     2d8:	50 e0       	ldi	r21, 0x00	; 0
     2da:	0e 94 b4 0c 	call	0x1968	; 0x1968 <__eeupd_block_m16a>
     2de:	08 95       	ret

000002e0 <led_init>:
     2e0:	e2 ee       	ldi	r30, 0xE2	; 226
     2e2:	f0 e0       	ldi	r31, 0x00	; 0
     2e4:	81 e1       	ldi	r24, 0x11	; 17
     2e6:	81 93       	st	Z+, r24
     2e8:	90 e0       	ldi	r25, 0x00	; 0
     2ea:	e1 3f       	cpi	r30, 0xF1	; 241
     2ec:	f9 07       	cpc	r31, r25
     2ee:	d9 f7       	brne	.-10     	; 0x2e6 <led_init+0x6>
     2f0:	8f ef       	ldi	r24, 0xFF	; 255
     2f2:	84 bb       	out	0x14, r24	; 20
     2f4:	8c ef       	ldi	r24, 0xFC	; 252
     2f6:	8a bb       	out	0x1a, r24	; 26
     2f8:	87 ef       	ldi	r24, 0xF7	; 247
     2fa:	87 bb       	out	0x17, r24	; 23
     2fc:	83 e0       	ldi	r24, 0x03	; 3
     2fe:	81 bb       	out	0x11, r24	; 17
     300:	81 e0       	ldi	r24, 0x01	; 1
     302:	8e bd       	out	0x2e, r24	; 46
     304:	89 b7       	in	r24, 0x39	; 57
     306:	84 60       	ori	r24, 0x04	; 4
     308:	89 bf       	out	0x39, r24	; 57
     30a:	88 ee       	ldi	r24, 0xE8	; 232
     30c:	9d ef       	ldi	r25, 0xFD	; 253
     30e:	9d bd       	out	0x2d, r25	; 45
     310:	8c bd       	out	0x2c, r24	; 44
     312:	08 95       	ret

00000314 <outChar>:
     314:	e8 2f       	mov	r30, r24
     316:	8b b3       	in	r24, 0x1b	; 27
     318:	8c 6f       	ori	r24, 0xFC	; 252
     31a:	8b bb       	out	0x1b, r24	; 27
     31c:	88 b3       	in	r24, 0x18	; 24
     31e:	87 6f       	ori	r24, 0xF7	; 247
     320:	88 bb       	out	0x18, r24	; 24
     322:	82 b3       	in	r24, 0x12	; 18
     324:	83 60       	ori	r24, 0x03	; 3
     326:	82 bb       	out	0x12, r24	; 18
     328:	15 ba       	out	0x15, r1	; 21
     32a:	e7 30       	cpi	r30, 0x07	; 7
     32c:	71 f1       	breq	.+92     	; 0x38a <outChar+0x76>
     32e:	e8 30       	cpi	r30, 0x08	; 8
     330:	70 f4       	brcc	.+28     	; 0x34e <outChar+0x3a>
     332:	e3 30       	cpi	r30, 0x03	; 3
     334:	11 f1       	breq	.+68     	; 0x37a <outChar+0x66>
     336:	e4 30       	cpi	r30, 0x04	; 4
     338:	28 f4       	brcc	.+10     	; 0x344 <outChar+0x30>
     33a:	e1 30       	cpi	r30, 0x01	; 1
     33c:	d1 f0       	breq	.+52     	; 0x372 <outChar+0x5e>
     33e:	e2 30       	cpi	r30, 0x02	; 2
     340:	d0 f4       	brcc	.+52     	; 0x376 <outChar+0x62>
     342:	15 c0       	rjmp	.+42     	; 0x36e <outChar+0x5a>
     344:	e5 30       	cpi	r30, 0x05	; 5
     346:	e9 f0       	breq	.+58     	; 0x382 <outChar+0x6e>
     348:	e6 30       	cpi	r30, 0x06	; 6
     34a:	e8 f4       	brcc	.+58     	; 0x386 <outChar+0x72>
     34c:	18 c0       	rjmp	.+48     	; 0x37e <outChar+0x6a>
     34e:	eb 30       	cpi	r30, 0x0B	; 11
     350:	21 f1       	breq	.+72     	; 0x39a <outChar+0x86>
     352:	ec 30       	cpi	r30, 0x0C	; 12
     354:	28 f4       	brcc	.+10     	; 0x360 <outChar+0x4c>
     356:	e9 30       	cpi	r30, 0x09	; 9
     358:	e1 f0       	breq	.+56     	; 0x392 <outChar+0x7e>
     35a:	ea 30       	cpi	r30, 0x0A	; 10
     35c:	e0 f4       	brcc	.+56     	; 0x396 <outChar+0x82>
     35e:	17 c0       	rjmp	.+46     	; 0x38e <outChar+0x7a>
     360:	ed 30       	cpi	r30, 0x0D	; 13
     362:	f9 f0       	breq	.+62     	; 0x3a2 <outChar+0x8e>
     364:	ed 30       	cpi	r30, 0x0D	; 13
     366:	d8 f0       	brcs	.+54     	; 0x39e <outChar+0x8a>
     368:	ee 30       	cpi	r30, 0x0E	; 14
     36a:	f1 f4       	brne	.+60     	; 0x3a8 <outChar+0x94>
     36c:	1c c0       	rjmp	.+56     	; 0x3a6 <outChar+0x92>
     36e:	c7 98       	cbi	0x18, 7	; 24
     370:	1b c0       	rjmp	.+54     	; 0x3a8 <outChar+0x94>
     372:	90 98       	cbi	0x12, 0	; 18
     374:	19 c0       	rjmp	.+50     	; 0x3a8 <outChar+0x94>
     376:	91 98       	cbi	0x12, 1	; 18
     378:	17 c0       	rjmp	.+46     	; 0x3a8 <outChar+0x94>
     37a:	c4 98       	cbi	0x18, 4	; 24
     37c:	15 c0       	rjmp	.+42     	; 0x3a8 <outChar+0x94>
     37e:	c5 98       	cbi	0x18, 5	; 24
     380:	13 c0       	rjmp	.+38     	; 0x3a8 <outChar+0x94>
     382:	c6 98       	cbi	0x18, 6	; 24
     384:	11 c0       	rjmp	.+34     	; 0x3a8 <outChar+0x94>
     386:	c0 98       	cbi	0x18, 0	; 24
     388:	0f c0       	rjmp	.+30     	; 0x3a8 <outChar+0x94>
     38a:	c1 98       	cbi	0x18, 1	; 24
     38c:	0d c0       	rjmp	.+26     	; 0x3a8 <outChar+0x94>
     38e:	c2 98       	cbi	0x18, 2	; 24
     390:	0b c0       	rjmp	.+22     	; 0x3a8 <outChar+0x94>
     392:	da 98       	cbi	0x1b, 2	; 27
     394:	09 c0       	rjmp	.+18     	; 0x3a8 <outChar+0x94>
     396:	db 98       	cbi	0x1b, 3	; 27
     398:	07 c0       	rjmp	.+14     	; 0x3a8 <outChar+0x94>
     39a:	dc 98       	cbi	0x1b, 4	; 27
     39c:	05 c0       	rjmp	.+10     	; 0x3a8 <outChar+0x94>
     39e:	dd 98       	cbi	0x1b, 5	; 27
     3a0:	03 c0       	rjmp	.+6      	; 0x3a8 <outChar+0x94>
     3a2:	de 98       	cbi	0x1b, 6	; 27
     3a4:	01 c0       	rjmp	.+2      	; 0x3a8 <outChar+0x94>
     3a6:	df 98       	cbi	0x1b, 7	; 27
     3a8:	80 91 96 00 	lds	r24, 0x0096
     3ac:	88 23       	and	r24, r24
     3ae:	09 f4       	brne	.+2      	; 0x3b2 <outChar+0x9e>
     3b0:	4e c0       	rjmp	.+156    	; 0x44e <outChar+0x13a>
     3b2:	20 91 9a 00 	lds	r18, 0x009A
     3b6:	30 91 9b 00 	lds	r19, 0x009B
     3ba:	2f 5f       	subi	r18, 0xFF	; 255
     3bc:	3f 4f       	sbci	r19, 0xFF	; 255
     3be:	30 93 9b 00 	sts	0x009B, r19
     3c2:	20 93 9a 00 	sts	0x009A, r18
     3c6:	8e 2f       	mov	r24, r30
     3c8:	63 e0       	ldi	r22, 0x03	; 3
     3ca:	0e 94 71 0c 	call	0x18e2	; 0x18e2 <__udivmodqi4>
     3ce:	40 91 9c 00 	lds	r20, 0x009C
     3d2:	50 91 9d 00 	lds	r21, 0x009D
     3d6:	41 15       	cp	r20, r1
     3d8:	51 05       	cpc	r21, r1
     3da:	31 f0       	breq	.+12     	; 0x3e8 <outChar+0xd4>
     3dc:	90 91 60 00 	lds	r25, 0x0060
     3e0:	98 17       	cp	r25, r24
     3e2:	09 f0       	breq	.+2      	; 0x3e6 <outChar+0xd2>
     3e4:	4d c0       	rjmp	.+154    	; 0x480 <__stack+0x21>
     3e6:	33 c0       	rjmp	.+102    	; 0x44e <outChar+0x13a>
     3e8:	90 91 9e 00 	lds	r25, 0x009E
     3ec:	99 23       	and	r25, r25
     3ee:	71 f0       	breq	.+28     	; 0x40c <outChar+0xf8>
     3f0:	83 e1       	ldi	r24, 0x13	; 19
     3f2:	28 38       	cpi	r18, 0x88	; 136
     3f4:	38 07       	cpc	r19, r24
     3f6:	5c f1       	brlt	.+86     	; 0x44e <outChar+0x13a>
     3f8:	87 e2       	ldi	r24, 0x27	; 39
     3fa:	21 31       	cpi	r18, 0x11	; 17
     3fc:	38 07       	cpc	r19, r24
     3fe:	0c f4       	brge	.+2      	; 0x402 <outChar+0xee>
     400:	3f c0       	rjmp	.+126    	; 0x480 <__stack+0x21>
     402:	10 92 9b 00 	sts	0x009B, r1
     406:	10 92 9a 00 	sts	0x009A, r1
     40a:	08 95       	ret
     40c:	90 91 60 00 	lds	r25, 0x0060
     410:	98 17       	cp	r25, r24
     412:	41 f0       	breq	.+16     	; 0x424 <outChar+0x110>
     414:	80 91 61 00 	lds	r24, 0x0061
     418:	8e 17       	cp	r24, r30
     41a:	21 f0       	breq	.+8      	; 0x424 <outChar+0x110>
     41c:	80 91 62 00 	lds	r24, 0x0062
     420:	8e 17       	cp	r24, r30
     422:	69 f4       	brne	.+26     	; 0x43e <outChar+0x12a>
     424:	83 e1       	ldi	r24, 0x13	; 19
     426:	29 38       	cpi	r18, 0x89	; 137
     428:	38 07       	cpc	r19, r24
     42a:	8c f0       	brlt	.+34     	; 0x44e <outChar+0x13a>
     42c:	40 b3       	in	r20, 0x10	; 16
     42e:	50 e0       	ldi	r21, 0x00	; 0
     430:	40 95       	com	r20
     432:	50 95       	com	r21
     434:	40 76       	andi	r20, 0x60	; 96
     436:	50 70       	andi	r21, 0x00	; 0
     438:	41 15       	cp	r20, r1
     43a:	51 05       	cpc	r21, r1
     43c:	09 f1       	breq	.+66     	; 0x480 <__stack+0x21>
     43e:	87 e2       	ldi	r24, 0x27	; 39
     440:	21 31       	cpi	r18, 0x11	; 17
     442:	38 07       	cpc	r19, r24
     444:	24 f0       	brlt	.+8      	; 0x44e <outChar+0x13a>
     446:	10 92 9b 00 	sts	0x009B, r1
     44a:	10 92 9a 00 	sts	0x009A, r1
     44e:	f0 e0       	ldi	r31, 0x00	; 0
     450:	ee 51       	subi	r30, 0x1E	; 30
     452:	ff 4f       	sbci	r31, 0xFF	; 255
     454:	e0 81       	ld	r30, Z
     456:	f0 e0       	ldi	r31, 0x00	; 0
     458:	e5 fd       	sbrc	r30, 5
     45a:	04 c0       	rjmp	.+8      	; 0x464 <__stack+0x5>
     45c:	80 91 97 00 	lds	r24, 0x0097
     460:	88 23       	and	r24, r24
     462:	41 f0       	breq	.+16     	; 0x474 <__stack+0x15>
     464:	ef 71       	andi	r30, 0x1F	; 31
     466:	f0 70       	andi	r31, 0x00	; 0
     468:	ed 59       	subi	r30, 0x9D	; 157
     46a:	ff 4f       	sbci	r31, 0xFF	; 255
     46c:	80 81       	ld	r24, Z
     46e:	88 60       	ori	r24, 0x08	; 8
     470:	85 bb       	out	0x15, r24	; 21
     472:	08 95       	ret
     474:	ef 71       	andi	r30, 0x1F	; 31
     476:	f0 70       	andi	r31, 0x00	; 0
     478:	ed 59       	subi	r30, 0x9D	; 157
     47a:	ff 4f       	sbci	r31, 0xFF	; 255
     47c:	80 81       	ld	r24, Z
     47e:	85 bb       	out	0x15, r24	; 21
     480:	08 95       	ret

00000482 <write_num>:
     482:	0f 93       	push	r16
     484:	1f 93       	push	r17
     486:	08 2f       	mov	r16, r24
     488:	fb 01       	movw	r30, r22
     48a:	77 ff       	sbrs	r23, 7
     48c:	0b c0       	rjmp	.+22     	; 0x4a4 <write_num+0x22>
     48e:	e3 e0       	ldi	r30, 0x03	; 3
     490:	8e 9f       	mul	r24, r30
     492:	f0 01       	movw	r30, r0
     494:	11 24       	eor	r1, r1
     496:	ee 51       	subi	r30, 0x1E	; 30
     498:	ff 4f       	sbci	r31, 0xFF	; 255
     49a:	81 e1       	ldi	r24, 0x11	; 17
     49c:	80 83       	st	Z, r24
     49e:	81 83       	std	Z+1, r24	; 0x01
     4a0:	82 83       	std	Z+2, r24	; 0x02
     4a2:	2b c0       	rjmp	.+86     	; 0x4fa <write_num+0x78>
     4a4:	cb 01       	movw	r24, r22
     4a6:	64 e6       	ldi	r22, 0x64	; 100
     4a8:	70 e0       	ldi	r23, 0x00	; 0
     4aa:	0e 94 7d 0c 	call	0x18fa	; 0x18fa <__divmodhi4>
     4ae:	16 2f       	mov	r17, r22
     4b0:	a6 2f       	mov	r26, r22
     4b2:	b0 e0       	ldi	r27, 0x00	; 0
     4b4:	4c e9       	ldi	r20, 0x9C	; 156
     4b6:	5f ef       	ldi	r21, 0xFF	; 255
     4b8:	a4 9f       	mul	r26, r20
     4ba:	90 01       	movw	r18, r0
     4bc:	a5 9f       	mul	r26, r21
     4be:	30 0d       	add	r19, r0
     4c0:	b4 9f       	mul	r27, r20
     4c2:	30 0d       	add	r19, r0
     4c4:	11 24       	eor	r1, r1
     4c6:	2e 0f       	add	r18, r30
     4c8:	3f 1f       	adc	r19, r31
     4ca:	c9 01       	movw	r24, r18
     4cc:	6a e0       	ldi	r22, 0x0A	; 10
     4ce:	70 e0       	ldi	r23, 0x00	; 0
     4d0:	0e 94 7d 0c 	call	0x18fa	; 0x18fa <__divmodhi4>
     4d4:	46 ef       	ldi	r20, 0xF6	; 246
     4d6:	5f ef       	ldi	r21, 0xFF	; 255
     4d8:	64 9f       	mul	r22, r20
     4da:	40 2d       	mov	r20, r0
     4dc:	11 24       	eor	r1, r1
     4de:	42 0f       	add	r20, r18
     4e0:	11 23       	and	r17, r17
     4e2:	09 f4       	brne	.+2      	; 0x4e6 <write_num+0x64>
     4e4:	10 e1       	ldi	r17, 0x10	; 16
     4e6:	e3 e0       	ldi	r30, 0x03	; 3
     4e8:	0e 9f       	mul	r16, r30
     4ea:	f0 01       	movw	r30, r0
     4ec:	11 24       	eor	r1, r1
     4ee:	ee 51       	subi	r30, 0x1E	; 30
     4f0:	ff 4f       	sbci	r31, 0xFF	; 255
     4f2:	10 83       	st	Z, r17
     4f4:	60 62       	ori	r22, 0x20	; 32
     4f6:	61 83       	std	Z+1, r22	; 0x01
     4f8:	42 83       	std	Z+2, r20	; 0x02
     4fa:	1f 91       	pop	r17
     4fc:	0f 91       	pop	r16
     4fe:	08 95       	ret

00000500 <__vector_8>:
     500:	1f 92       	push	r1
     502:	0f 92       	push	r0
     504:	0f b6       	in	r0, 0x3f	; 63
     506:	0f 92       	push	r0
     508:	11 24       	eor	r1, r1
     50a:	2f 93       	push	r18
     50c:	3f 93       	push	r19
     50e:	4f 93       	push	r20
     510:	5f 93       	push	r21
     512:	6f 93       	push	r22
     514:	7f 93       	push	r23
     516:	8f 93       	push	r24
     518:	9f 93       	push	r25
     51a:	af 93       	push	r26
     51c:	bf 93       	push	r27
     51e:	ef 93       	push	r30
     520:	ff 93       	push	r31
     522:	88 ee       	ldi	r24, 0xE8	; 232
     524:	9d ef       	ldi	r25, 0xFD	; 253
     526:	9d bd       	out	0x2d, r25	; 45
     528:	8c bd       	out	0x2c, r24	; 44
     52a:	80 91 9f 00 	lds	r24, 0x009F
     52e:	0e 94 8a 01 	call	0x314	; 0x314 <outChar>
     532:	80 91 9f 00 	lds	r24, 0x009F
     536:	8f 5f       	subi	r24, 0xFF	; 255
     538:	80 93 9f 00 	sts	0x009F, r24
     53c:	80 31       	cpi	r24, 0x10	; 16
     53e:	10 f0       	brcs	.+4      	; 0x544 <__vector_8+0x44>
     540:	10 92 9f 00 	sts	0x009F, r1
     544:	ff 91       	pop	r31
     546:	ef 91       	pop	r30
     548:	bf 91       	pop	r27
     54a:	af 91       	pop	r26
     54c:	9f 91       	pop	r25
     54e:	8f 91       	pop	r24
     550:	7f 91       	pop	r23
     552:	6f 91       	pop	r22
     554:	5f 91       	pop	r21
     556:	4f 91       	pop	r20
     558:	3f 91       	pop	r19
     55a:	2f 91       	pop	r18
     55c:	0f 90       	pop	r0
     55e:	0f be       	out	0x3f, r0	; 63
     560:	0f 90       	pop	r0
     562:	1f 90       	pop	r1
     564:	18 95       	reti

00000566 <sound_init>:
     566:	8e eb       	ldi	r24, 0xBE	; 190
     568:	83 bd       	out	0x23, r24	; 35
     56a:	8d e6       	ldi	r24, 0x6D	; 109
     56c:	85 bd       	out	0x25, r24	; 37
     56e:	89 b7       	in	r24, 0x39	; 57
     570:	80 64       	ori	r24, 0x40	; 64
     572:	89 bf       	out	0x39, r24	; 57
     574:	08 95       	ret

00000576 <sound_play>:
     576:	64 e6       	ldi	r22, 0x64	; 100
     578:	70 e0       	ldi	r23, 0x00	; 0
     57a:	0e 94 7d 0c 	call	0x18fa	; 0x18fa <__divmodhi4>
     57e:	70 93 a9 00 	sts	0x00A9, r23
     582:	60 93 a8 00 	sts	0x00A8, r22
     586:	08 95       	ret

00000588 <check_signal>:
     588:	1f 93       	push	r17
     58a:	cf 93       	push	r28
     58c:	df 93       	push	r29
     58e:	e8 2f       	mov	r30, r24
     590:	f0 e0       	ldi	r31, 0x00	; 0
     592:	df 01       	movw	r26, r30
     594:	a0 56       	subi	r26, 0x60	; 96
     596:	bf 4f       	sbci	r27, 0xFF	; 255
     598:	1c 91       	ld	r17, X
     59a:	11 23       	and	r17, r17
     59c:	69 f1       	breq	.+90     	; 0x5f8 <check_signal+0x70>
     59e:	ef 01       	movw	r28, r30
     5a0:	cd 55       	subi	r28, 0x5D	; 93
     5a2:	df 4f       	sbci	r29, 0xFF	; 255
     5a4:	88 81       	ld	r24, Y
     5a6:	df 01       	movw	r26, r30
     5a8:	a1 58       	subi	r26, 0x81	; 129
     5aa:	bf 4f       	sbci	r27, 0xFF	; 255
     5ac:	88 23       	and	r24, r24
     5ae:	a9 f4       	brne	.+42     	; 0x5da <check_signal+0x52>
     5b0:	8c 91       	ld	r24, X
     5b2:	8f 5f       	subi	r24, 0xFF	; 255
     5b4:	8c 93       	st	X, r24
     5b6:	50 e0       	ldi	r21, 0x00	; 0
     5b8:	90 e0       	ldi	r25, 0x00	; 0
     5ba:	84 17       	cp	r24, r20
     5bc:	95 07       	cpc	r25, r21
     5be:	0c f0       	brlt	.+2      	; 0x5c2 <check_signal+0x3a>
     5c0:	1c 92       	st	X, r1
     5c2:	df 01       	movw	r26, r30
     5c4:	ad 55       	subi	r26, 0x5D	; 93
     5c6:	bf 4f       	sbci	r27, 0xFF	; 255
     5c8:	e1 58       	subi	r30, 0x81	; 129
     5ca:	ff 4f       	sbci	r31, 0xFF	; 255
     5cc:	80 81       	ld	r24, Z
     5ce:	68 0f       	add	r22, r24
     5d0:	71 1d       	adc	r23, r1
     5d2:	fb 01       	movw	r30, r22
     5d4:	80 81       	ld	r24, Z
     5d6:	8c 93       	st	X, r24
     5d8:	13 c0       	rjmp	.+38     	; 0x600 <check_signal+0x78>
     5da:	81 50       	subi	r24, 0x01	; 1
     5dc:	88 83       	st	Y, r24
     5de:	8c 91       	ld	r24, X
     5e0:	80 fd       	sbrc	r24, 0
     5e2:	0e c0       	rjmp	.+28     	; 0x600 <check_signal+0x78>
     5e4:	c9 01       	movw	r24, r18
     5e6:	64 e6       	ldi	r22, 0x64	; 100
     5e8:	70 e0       	ldi	r23, 0x00	; 0
     5ea:	0e 94 7d 0c 	call	0x18fa	; 0x18fa <__divmodhi4>
     5ee:	70 93 a9 00 	sts	0x00A9, r23
     5f2:	60 93 a8 00 	sts	0x00A8, r22
     5f6:	04 c0       	rjmp	.+8      	; 0x600 <check_signal+0x78>
     5f8:	e1 58       	subi	r30, 0x81	; 129
     5fa:	ff 4f       	sbci	r31, 0xFF	; 255
     5fc:	8f ef       	ldi	r24, 0xFF	; 255
     5fe:	80 83       	st	Z, r24
     600:	81 2f       	mov	r24, r17
     602:	df 91       	pop	r29
     604:	cf 91       	pop	r28
     606:	1f 91       	pop	r17
     608:	08 95       	ret

0000060a <sound_player>:
     60a:	80 91 a8 00 	lds	r24, 0x00A8
     60e:	90 91 a9 00 	lds	r25, 0x00A9
     612:	00 97       	sbiw	r24, 0x00	; 0
     614:	39 f0       	breq	.+14     	; 0x624 <sound_player+0x1a>
     616:	8f 9a       	sbi	0x11, 7	; 17
     618:	01 97       	sbiw	r24, 0x01	; 1
     61a:	90 93 a9 00 	sts	0x00A9, r25
     61e:	80 93 a8 00 	sts	0x00A8, r24
     622:	01 c0       	rjmp	.+2      	; 0x626 <sound_player+0x1c>
     624:	8f 98       	cbi	0x11, 7	; 17
     626:	80 91 98 00 	lds	r24, 0x0098
     62a:	90 91 99 00 	lds	r25, 0x0099
     62e:	00 97       	sbiw	r24, 0x00	; 0
     630:	71 f5       	brne	.+92     	; 0x68e <sound_player+0x84>
     632:	80 91 a6 00 	lds	r24, 0x00A6
     636:	90 91 a7 00 	lds	r25, 0x00A7
     63a:	00 97       	sbiw	r24, 0x00	; 0
     63c:	11 f5       	brne	.+68     	; 0x682 <sound_player+0x78>
     63e:	82 e0       	ldi	r24, 0x02	; 2
     640:	90 e0       	ldi	r25, 0x00	; 0
     642:	90 93 a7 00 	sts	0x00A7, r25
     646:	80 93 a6 00 	sts	0x00A6, r24
     64a:	82 e0       	ldi	r24, 0x02	; 2
     64c:	6d e7       	ldi	r22, 0x7D	; 125
     64e:	70 e0       	ldi	r23, 0x00	; 0
     650:	42 e0       	ldi	r20, 0x02	; 2
     652:	24 ef       	ldi	r18, 0xF4	; 244
     654:	31 e0       	ldi	r19, 0x01	; 1
     656:	0e 94 c4 02 	call	0x588	; 0x588 <check_signal>
     65a:	88 23       	and	r24, r24
     65c:	e9 f4       	brne	.+58     	; 0x698 <sound_player+0x8e>
     65e:	81 e0       	ldi	r24, 0x01	; 1
     660:	69 e7       	ldi	r22, 0x79	; 121
     662:	70 e0       	ldi	r23, 0x00	; 0
     664:	44 e0       	ldi	r20, 0x04	; 4
     666:	2a ef       	ldi	r18, 0xFA	; 250
     668:	30 e0       	ldi	r19, 0x00	; 0
     66a:	0e 94 c4 02 	call	0x588	; 0x588 <check_signal>
     66e:	88 23       	and	r24, r24
     670:	99 f4       	brne	.+38     	; 0x698 <sound_player+0x8e>
     672:	67 e7       	ldi	r22, 0x77	; 119
     674:	70 e0       	ldi	r23, 0x00	; 0
     676:	42 e0       	ldi	r20, 0x02	; 2
     678:	24 ef       	ldi	r18, 0xF4	; 244
     67a:	31 e0       	ldi	r19, 0x01	; 1
     67c:	0e 94 c4 02 	call	0x588	; 0x588 <check_signal>
     680:	08 95       	ret
     682:	01 97       	sbiw	r24, 0x01	; 1
     684:	90 93 a7 00 	sts	0x00A7, r25
     688:	80 93 a6 00 	sts	0x00A6, r24
     68c:	08 95       	ret
     68e:	01 97       	sbiw	r24, 0x01	; 1
     690:	90 93 99 00 	sts	0x0099, r25
     694:	80 93 98 00 	sts	0x0098, r24
     698:	08 95       	ret

0000069a <__vector_4>:
     69a:	1f 92       	push	r1
     69c:	0f 92       	push	r0
     69e:	0f b6       	in	r0, 0x3f	; 63
     6a0:	0f 92       	push	r0
     6a2:	11 24       	eor	r1, r1
     6a4:	8f 93       	push	r24
     6a6:	8f e7       	ldi	r24, 0x7F	; 127
     6a8:	84 bd       	out	0x24, r24	; 36
     6aa:	8f 91       	pop	r24
     6ac:	0f 90       	pop	r0
     6ae:	0f be       	out	0x3f, r0	; 63
     6b0:	0f 90       	pop	r0
     6b2:	1f 90       	pop	r1
     6b4:	18 95       	reti

000006b6 <crc_table>:
     6b6:	28 2f       	mov	r18, r24
     6b8:	98 e0       	ldi	r25, 0x08	; 8
     6ba:	80 e0       	ldi	r24, 0x00	; 0
     6bc:	48 e1       	ldi	r20, 0x18	; 24
     6be:	38 2f       	mov	r19, r24
     6c0:	32 27       	eor	r19, r18
     6c2:	53 2f       	mov	r21, r19
     6c4:	51 70       	andi	r21, 0x01	; 1
     6c6:	30 fd       	sbrc	r19, 0
     6c8:	84 27       	eor	r24, r20
     6ca:	86 95       	lsr	r24
     6cc:	51 30       	cpi	r21, 0x01	; 1
     6ce:	09 f4       	brne	.+2      	; 0x6d2 <crc_table+0x1c>
     6d0:	80 68       	ori	r24, 0x80	; 128
     6d2:	91 50       	subi	r25, 0x01	; 1
     6d4:	11 f0       	breq	.+4      	; 0x6da <crc_table+0x24>
     6d6:	26 95       	lsr	r18
     6d8:	f2 cf       	rjmp	.-28     	; 0x6be <crc_table+0x8>
     6da:	08 95       	ret

000006dc <ow_master_init>:
     6dc:	21 b3       	in	r18, 0x11	; 17
     6de:	30 b3       	in	r19, 0x10	; 16
     6e0:	81 e0       	ldi	r24, 0x01	; 1
     6e2:	90 e0       	ldi	r25, 0x00	; 0
     6e4:	02 c0       	rjmp	.+4      	; 0x6ea <ow_master_init+0xe>
     6e6:	88 0f       	add	r24, r24
     6e8:	99 1f       	adc	r25, r25
     6ea:	3a 95       	dec	r19
     6ec:	e2 f7       	brpl	.-8      	; 0x6e6 <ow_master_init+0xa>
     6ee:	80 95       	com	r24
     6f0:	82 23       	and	r24, r18
     6f2:	81 bb       	out	0x11, r24	; 17
     6f4:	08 95       	ret

000006f6 <OW_M_set>:
     6f6:	88 23       	and	r24, r24
     6f8:	19 f0       	breq	.+6      	; 0x700 <OW_M_set+0xa>
     6fa:	92 98       	cbi	0x12, 2	; 18
     6fc:	8a 9a       	sbi	0x11, 2	; 17
     6fe:	08 95       	ret
     700:	92 98       	cbi	0x12, 2	; 18
     702:	8a 98       	cbi	0x11, 2	; 17
     704:	08 95       	ret

00000706 <OW_M_reset>:
     706:	81 e0       	ldi	r24, 0x01	; 1
     708:	0e 94 7b 03 	call	0x6f6	; 0x6f6 <OW_M_set>
     70c:	8f eb       	ldi	r24, 0xBF	; 191
     70e:	93 e0       	ldi	r25, 0x03	; 3
     710:	01 97       	sbiw	r24, 0x01	; 1
     712:	f1 f7       	brne	.-4      	; 0x710 <OW_M_reset+0xa>
     714:	00 c0       	rjmp	.+0      	; 0x716 <OW_M_reset+0x10>
     716:	00 00       	nop
     718:	80 e0       	ldi	r24, 0x00	; 0
     71a:	0e 94 7b 03 	call	0x6f6	; 0x6f6 <OW_M_set>
     71e:	90 ea       	ldi	r25, 0xA0	; 160
     720:	9a 95       	dec	r25
     722:	f1 f7       	brne	.-4      	; 0x720 <OW_M_reset+0x1a>
     724:	90 b3       	in	r25, 0x10	; 16
     726:	e7 e4       	ldi	r30, 0x47	; 71
     728:	f3 e0       	ldi	r31, 0x03	; 3
     72a:	31 97       	sbiw	r30, 0x01	; 1
     72c:	f1 f7       	brne	.-4      	; 0x72a <OW_M_reset+0x24>
     72e:	00 c0       	rjmp	.+0      	; 0x730 <OW_M_reset+0x2a>
     730:	00 00       	nop
     732:	81 e0       	ldi	r24, 0x01	; 1
     734:	92 fd       	sbrc	r25, 2
     736:	80 e0       	ldi	r24, 0x00	; 0
     738:	08 95       	ret

0000073a <OW_M_writeBit>:
     73a:	1f 93       	push	r17
     73c:	18 2f       	mov	r17, r24
     73e:	81 e0       	ldi	r24, 0x01	; 1
     740:	0e 94 7b 03 	call	0x6f6	; 0x6f6 <OW_M_set>
     744:	82 e0       	ldi	r24, 0x02	; 2
     746:	8a 95       	dec	r24
     748:	f1 f7       	brne	.-4      	; 0x746 <OW_M_writeBit+0xc>
     74a:	00 c0       	rjmp	.+0      	; 0x74c <OW_M_writeBit+0x12>
     74c:	11 23       	and	r17, r17
     74e:	19 f0       	breq	.+6      	; 0x756 <OW_M_writeBit+0x1c>
     750:	80 e0       	ldi	r24, 0x00	; 0
     752:	0e 94 7b 03 	call	0x6f6	; 0x6f6 <OW_M_set>
     756:	80 ea       	ldi	r24, 0xA0	; 160
     758:	8a 95       	dec	r24
     75a:	f1 f7       	brne	.-4      	; 0x758 <OW_M_writeBit+0x1e>
     75c:	80 e0       	ldi	r24, 0x00	; 0
     75e:	0e 94 7b 03 	call	0x6f6	; 0x6f6 <OW_M_set>
     762:	1f 91       	pop	r17
     764:	08 95       	ret

00000766 <OW_M_readBit>:
     766:	81 e0       	ldi	r24, 0x01	; 1
     768:	0e 94 7b 03 	call	0x6f6	; 0x6f6 <OW_M_set>
     76c:	82 e0       	ldi	r24, 0x02	; 2
     76e:	8a 95       	dec	r24
     770:	f1 f7       	brne	.-4      	; 0x76e <OW_M_readBit+0x8>
     772:	00 c0       	rjmp	.+0      	; 0x774 <OW_M_readBit+0xe>
     774:	80 e0       	ldi	r24, 0x00	; 0
     776:	0e 94 7b 03 	call	0x6f6	; 0x6f6 <OW_M_set>
     77a:	8a e1       	ldi	r24, 0x1A	; 26
     77c:	8a 95       	dec	r24
     77e:	f1 f7       	brne	.-4      	; 0x77c <OW_M_readBit+0x16>
     780:	00 c0       	rjmp	.+0      	; 0x782 <OW_M_readBit+0x1c>
     782:	90 b3       	in	r25, 0x10	; 16
     784:	8a e6       	ldi	r24, 0x6A	; 106
     786:	8a 95       	dec	r24
     788:	f1 f7       	brne	.-4      	; 0x786 <OW_M_readBit+0x20>
     78a:	00 c0       	rjmp	.+0      	; 0x78c <OW_M_readBit+0x26>
     78c:	81 e0       	ldi	r24, 0x01	; 1
     78e:	92 ff       	sbrs	r25, 2
     790:	80 e0       	ldi	r24, 0x00	; 0
     792:	08 95       	ret

00000794 <OW_M_writeByte>:
     794:	ff 92       	push	r15
     796:	0f 93       	push	r16
     798:	1f 93       	push	r17
     79a:	cf 93       	push	r28
     79c:	df 93       	push	r29
     79e:	f8 2e       	mov	r15, r24
     7a0:	c0 e0       	ldi	r28, 0x00	; 0
     7a2:	d0 e0       	ldi	r29, 0x00	; 0
     7a4:	01 e0       	ldi	r16, 0x01	; 1
     7a6:	10 e0       	ldi	r17, 0x00	; 0
     7a8:	98 01       	movw	r18, r16
     7aa:	0c 2e       	mov	r0, r28
     7ac:	02 c0       	rjmp	.+4      	; 0x7b2 <OW_M_writeByte+0x1e>
     7ae:	22 0f       	add	r18, r18
     7b0:	33 1f       	adc	r19, r19
     7b2:	0a 94       	dec	r0
     7b4:	e2 f7       	brpl	.-8      	; 0x7ae <OW_M_writeByte+0x1a>
     7b6:	8f 2d       	mov	r24, r15
     7b8:	82 23       	and	r24, r18
     7ba:	0e 94 9d 03 	call	0x73a	; 0x73a <OW_M_writeBit>
     7be:	21 96       	adiw	r28, 0x01	; 1
     7c0:	c8 30       	cpi	r28, 0x08	; 8
     7c2:	d1 05       	cpc	r29, r1
     7c4:	89 f7       	brne	.-30     	; 0x7a8 <OW_M_writeByte+0x14>
     7c6:	df 91       	pop	r29
     7c8:	cf 91       	pop	r28
     7ca:	1f 91       	pop	r17
     7cc:	0f 91       	pop	r16
     7ce:	ff 90       	pop	r15
     7d0:	08 95       	ret

000007d2 <OW_M_readByte>:
     7d2:	ff 92       	push	r15
     7d4:	0f 93       	push	r16
     7d6:	1f 93       	push	r17
     7d8:	cf 93       	push	r28
     7da:	df 93       	push	r29
     7dc:	c0 e0       	ldi	r28, 0x00	; 0
     7de:	d0 e0       	ldi	r29, 0x00	; 0
     7e0:	ff 24       	eor	r15, r15
     7e2:	01 e0       	ldi	r16, 0x01	; 1
     7e4:	10 e0       	ldi	r17, 0x00	; 0
     7e6:	0e 94 b3 03 	call	0x766	; 0x766 <OW_M_readBit>
     7ea:	88 23       	and	r24, r24
     7ec:	41 f0       	breq	.+16     	; 0x7fe <OW_M_readByte+0x2c>
     7ee:	98 01       	movw	r18, r16
     7f0:	0c 2e       	mov	r0, r28
     7f2:	02 c0       	rjmp	.+4      	; 0x7f8 <OW_M_readByte+0x26>
     7f4:	22 0f       	add	r18, r18
     7f6:	33 1f       	adc	r19, r19
     7f8:	0a 94       	dec	r0
     7fa:	e2 f7       	brpl	.-8      	; 0x7f4 <OW_M_readByte+0x22>
     7fc:	f2 2a       	or	r15, r18
     7fe:	21 96       	adiw	r28, 0x01	; 1
     800:	c8 30       	cpi	r28, 0x08	; 8
     802:	d1 05       	cpc	r29, r1
     804:	81 f7       	brne	.-32     	; 0x7e6 <OW_M_readByte+0x14>
     806:	8f 2d       	mov	r24, r15
     808:	df 91       	pop	r29
     80a:	cf 91       	pop	r28
     80c:	1f 91       	pop	r17
     80e:	0f 91       	pop	r16
     810:	ff 90       	pop	r15
     812:	08 95       	ret

00000814 <OW_M_searchROM>:
     814:	df 92       	push	r13
     816:	ef 92       	push	r14
     818:	ff 92       	push	r15
     81a:	0f 93       	push	r16
     81c:	1f 93       	push	r17
     81e:	cf 93       	push	r28
     820:	df 93       	push	r29
     822:	18 2f       	mov	r17, r24
     824:	eb 01       	movw	r28, r22
     826:	0e 94 83 03 	call	0x706	; 0x706 <OW_M_reset>
     82a:	88 23       	and	r24, r24
     82c:	79 f1       	breq	.+94     	; 0x88c <OW_M_searchROM+0x78>
     82e:	80 ef       	ldi	r24, 0xF0	; 240
     830:	0e 94 ca 03 	call	0x794	; 0x794 <OW_M_writeByte>
     834:	ee 24       	eor	r14, r14
     836:	00 e4       	ldi	r16, 0x40	; 64
     838:	88 ef       	ldi	r24, 0xF8	; 248
     83a:	d8 2e       	mov	r13, r24
     83c:	d0 0e       	add	r13, r16
     83e:	0e 94 b3 03 	call	0x766	; 0x766 <OW_M_readBit>
     842:	f8 2e       	mov	r15, r24
     844:	0e 94 b3 03 	call	0x766	; 0x766 <OW_M_readBit>
     848:	88 23       	and	r24, r24
     84a:	19 f0       	breq	.+6      	; 0x852 <OW_M_searchROM+0x3e>
     84c:	ff 20       	and	r15, r15
     84e:	69 f0       	breq	.+26     	; 0x86a <OW_M_searchROM+0x56>
     850:	20 c0       	rjmp	.+64     	; 0x892 <OW_M_searchROM+0x7e>
     852:	ff 20       	and	r15, r15
     854:	51 f4       	brne	.+20     	; 0x86a <OW_M_searchROM+0x56>
     856:	01 17       	cp	r16, r17
     858:	28 f0       	brcs	.+10     	; 0x864 <OW_M_searchROM+0x50>
     85a:	88 81       	ld	r24, Y
     85c:	80 ff       	sbrs	r24, 0
     85e:	05 c0       	rjmp	.+10     	; 0x86a <OW_M_searchROM+0x56>
     860:	10 17       	cp	r17, r16
     862:	19 f0       	breq	.+6      	; 0x86a <OW_M_searchROM+0x56>
     864:	e0 2e       	mov	r14, r16
     866:	ff 24       	eor	r15, r15
     868:	f3 94       	inc	r15
     86a:	8f 2d       	mov	r24, r15
     86c:	0e 94 9d 03 	call	0x73a	; 0x73a <OW_M_writeBit>
     870:	88 81       	ld	r24, Y
     872:	86 95       	lsr	r24
     874:	88 83       	st	Y, r24
     876:	ff 20       	and	r15, r15
     878:	11 f0       	breq	.+4      	; 0x87e <OW_M_searchROM+0x6a>
     87a:	80 68       	ori	r24, 0x80	; 128
     87c:	88 83       	st	Y, r24
     87e:	01 50       	subi	r16, 0x01	; 1
     880:	0d 15       	cp	r16, r13
     882:	e9 f6       	brne	.-70     	; 0x83e <OW_M_searchROM+0x2a>
     884:	00 23       	and	r16, r16
     886:	39 f0       	breq	.+14     	; 0x896 <OW_M_searchROM+0x82>
     888:	21 96       	adiw	r28, 0x01	; 1
     88a:	d6 cf       	rjmp	.-84     	; 0x838 <OW_M_searchROM+0x24>
     88c:	ee 24       	eor	r14, r14
     88e:	ea 94       	dec	r14
     890:	02 c0       	rjmp	.+4      	; 0x896 <OW_M_searchROM+0x82>
     892:	be ef       	ldi	r27, 0xFE	; 254
     894:	eb 2e       	mov	r14, r27
     896:	8e 2d       	mov	r24, r14
     898:	df 91       	pop	r29
     89a:	cf 91       	pop	r28
     89c:	1f 91       	pop	r17
     89e:	0f 91       	pop	r16
     8a0:	ff 90       	pop	r15
     8a2:	ef 90       	pop	r14
     8a4:	df 90       	pop	r13
     8a6:	08 95       	ret

000008a8 <OW_M_scan_devs>:
     8a8:	bf 92       	push	r11
     8aa:	cf 92       	push	r12
     8ac:	df 92       	push	r13
     8ae:	ef 92       	push	r14
     8b0:	ff 92       	push	r15
     8b2:	0f 93       	push	r16
     8b4:	1f 93       	push	r17
     8b6:	df 93       	push	r29
     8b8:	cf 93       	push	r28
     8ba:	cd b7       	in	r28, 0x3d	; 61
     8bc:	de b7       	in	r29, 0x3e	; 62
     8be:	28 97       	sbiw	r28, 0x08	; 8
     8c0:	0f b6       	in	r0, 0x3f	; 63
     8c2:	f8 94       	cli
     8c4:	de bf       	out	0x3e, r29	; 62
     8c6:	0f be       	out	0x3f, r0	; 63
     8c8:	cd bf       	out	0x3d, r28	; 61
     8ca:	f8 94       	cli
     8cc:	00 e0       	ldi	r16, 0x00	; 0
     8ce:	10 e0       	ldi	r17, 0x00	; 0
     8d0:	8f ef       	ldi	r24, 0xFF	; 255
     8d2:	7e 01       	movw	r14, r28
     8d4:	08 94       	sec
     8d6:	e1 1c       	adc	r14, r1
     8d8:	f1 1c       	adc	r15, r1
     8da:	39 e0       	ldi	r19, 0x09	; 9
     8dc:	c3 2e       	mov	r12, r19
     8de:	d1 2c       	mov	r13, r1
     8e0:	cc 0e       	add	r12, r28
     8e2:	dd 1e       	adc	r13, r29
     8e4:	b0 2e       	mov	r11, r16
     8e6:	b7 01       	movw	r22, r14
     8e8:	0e 94 0a 04 	call	0x814	; 0x814 <OW_M_searchROM>
     8ec:	8f 3f       	cpi	r24, 0xFF	; 255
     8ee:	29 f1       	breq	.+74     	; 0x93a <OW_M_scan_devs+0x92>
     8f0:	8e 3f       	cpi	r24, 0xFE	; 254
     8f2:	19 f1       	breq	.+70     	; 0x93a <OW_M_scan_devs+0x92>
     8f4:	d7 01       	movw	r26, r14
     8f6:	f8 01       	movw	r30, r16
     8f8:	23 e0       	ldi	r18, 0x03	; 3
     8fa:	ee 0f       	add	r30, r30
     8fc:	ff 1f       	adc	r31, r31
     8fe:	2a 95       	dec	r18
     900:	e1 f7       	brne	.-8      	; 0x8fa <OW_M_scan_devs+0x52>
     902:	e6 54       	subi	r30, 0x46	; 70
     904:	ff 4f       	sbci	r31, 0xFF	; 255
     906:	9d 91       	ld	r25, X+
     908:	91 93       	st	Z+, r25
     90a:	ac 15       	cp	r26, r12
     90c:	bd 05       	cpc	r27, r13
     90e:	d9 f7       	brne	.-10     	; 0x906 <OW_M_scan_devs+0x5e>
     910:	b3 94       	inc	r11
     912:	88 23       	and	r24, r24
     914:	29 f0       	breq	.+10     	; 0x920 <OW_M_scan_devs+0x78>
     916:	0f 5f       	subi	r16, 0xFF	; 255
     918:	1f 4f       	sbci	r17, 0xFF	; 255
     91a:	05 30       	cpi	r16, 0x05	; 5
     91c:	11 05       	cpc	r17, r1
     91e:	11 f7       	brne	.-60     	; 0x8e4 <OW_M_scan_devs+0x3c>
     920:	0b 2d       	mov	r16, r11
     922:	0b c0       	rjmp	.+22     	; 0x93a <OW_M_scan_devs+0x92>
     924:	e0 2f       	mov	r30, r16
     926:	f0 e0       	ldi	r31, 0x00	; 0
     928:	93 e0       	ldi	r25, 0x03	; 3
     92a:	ee 0f       	add	r30, r30
     92c:	ff 1f       	adc	r31, r31
     92e:	9a 95       	dec	r25
     930:	e1 f7       	brne	.-8      	; 0x92a <OW_M_scan_devs+0x82>
     932:	e6 54       	subi	r30, 0x46	; 70
     934:	ff 4f       	sbci	r31, 0xFF	; 255
     936:	10 82       	st	Z, r1
     938:	0f 5f       	subi	r16, 0xFF	; 255
     93a:	05 30       	cpi	r16, 0x05	; 5
     93c:	98 f3       	brcs	.-26     	; 0x924 <OW_M_scan_devs+0x7c>
     93e:	78 94       	sei
     940:	28 96       	adiw	r28, 0x08	; 8
     942:	0f b6       	in	r0, 0x3f	; 63
     944:	f8 94       	cli
     946:	de bf       	out	0x3e, r29	; 62
     948:	0f be       	out	0x3f, r0	; 63
     94a:	cd bf       	out	0x3d, r28	; 61
     94c:	cf 91       	pop	r28
     94e:	df 91       	pop	r29
     950:	1f 91       	pop	r17
     952:	0f 91       	pop	r16
     954:	ff 90       	pop	r15
     956:	ef 90       	pop	r14
     958:	df 90       	pop	r13
     95a:	cf 90       	pop	r12
     95c:	bf 90       	pop	r11
     95e:	08 95       	ret

00000960 <OW_M_matchROM>:
     960:	ef 92       	push	r14
     962:	ff 92       	push	r15
     964:	1f 93       	push	r17
     966:	df 93       	push	r29
     968:	cf 93       	push	r28
     96a:	0f 92       	push	r0
     96c:	cd b7       	in	r28, 0x3d	; 61
     96e:	de b7       	in	r29, 0x3e	; 62
     970:	18 2f       	mov	r17, r24
     972:	85 e5       	ldi	r24, 0x55	; 85
     974:	99 83       	std	Y+1, r25	; 0x01
     976:	0e 94 ca 03 	call	0x794	; 0x794 <OW_M_writeByte>
     97a:	99 81       	ldd	r25, Y+1	; 0x01
     97c:	61 2f       	mov	r22, r17
     97e:	79 2f       	mov	r23, r25
     980:	7b 01       	movw	r14, r22
     982:	18 e0       	ldi	r17, 0x08	; 8
     984:	f7 01       	movw	r30, r14
     986:	81 91       	ld	r24, Z+
     988:	7f 01       	movw	r14, r30
     98a:	0e 94 ca 03 	call	0x794	; 0x794 <OW_M_writeByte>
     98e:	11 50       	subi	r17, 0x01	; 1
     990:	c9 f7       	brne	.-14     	; 0x984 <OW_M_matchROM+0x24>
     992:	81 e0       	ldi	r24, 0x01	; 1
     994:	0f 90       	pop	r0
     996:	cf 91       	pop	r28
     998:	df 91       	pop	r29
     99a:	1f 91       	pop	r17
     99c:	ff 90       	pop	r15
     99e:	ef 90       	pop	r14
     9a0:	08 95       	ret

000009a2 <getTemp>:
     9a2:	cf 92       	push	r12
     9a4:	df 92       	push	r13
     9a6:	ef 92       	push	r14
     9a8:	ff 92       	push	r15
     9aa:	0f 93       	push	r16
     9ac:	1f 93       	push	r17
     9ae:	df 93       	push	r29
     9b0:	cf 93       	push	r28
     9b2:	cd b7       	in	r28, 0x3d	; 61
     9b4:	de b7       	in	r29, 0x3e	; 62
     9b6:	29 97       	sbiw	r28, 0x09	; 9
     9b8:	0f b6       	in	r0, 0x3f	; 63
     9ba:	f8 94       	cli
     9bc:	de bf       	out	0x3e, r29	; 62
     9be:	0f be       	out	0x3f, r0	; 63
     9c0:	cd bf       	out	0x3d, r28	; 61
     9c2:	8c 01       	movw	r16, r24
     9c4:	0e 94 83 03 	call	0x706	; 0x706 <OW_M_reset>
     9c8:	88 23       	and	r24, r24
     9ca:	09 f4       	brne	.+2      	; 0x9ce <getTemp+0x2c>
     9cc:	40 c0       	rjmp	.+128    	; 0xa4e <getTemp+0xac>
     9ce:	c8 01       	movw	r24, r16
     9d0:	0e 94 b0 04 	call	0x960	; 0x960 <OW_M_matchROM>
     9d4:	8e eb       	ldi	r24, 0xBE	; 190
     9d6:	0e 94 ca 03 	call	0x794	; 0x794 <OW_M_writeByte>
     9da:	8e 01       	movw	r16, r28
     9dc:	0f 5f       	subi	r16, 0xFF	; 255
     9de:	1f 4f       	sbci	r17, 0xFF	; 255
     9e0:	4a e0       	ldi	r20, 0x0A	; 10
     9e2:	c4 2e       	mov	r12, r20
     9e4:	d1 2c       	mov	r13, r1
     9e6:	cc 0e       	add	r12, r28
     9e8:	dd 1e       	adc	r13, r29
     9ea:	78 01       	movw	r14, r16
     9ec:	0e 94 e9 03 	call	0x7d2	; 0x7d2 <OW_M_readByte>
     9f0:	f7 01       	movw	r30, r14
     9f2:	81 93       	st	Z+, r24
     9f4:	7f 01       	movw	r14, r30
     9f6:	ec 15       	cp	r30, r12
     9f8:	fd 05       	cpc	r31, r13
     9fa:	c1 f7       	brne	.-16     	; 0x9ec <getTemp+0x4a>
     9fc:	80 e0       	ldi	r24, 0x00	; 0
     9fe:	f8 01       	movw	r30, r16
     a00:	91 91       	ld	r25, Z+
     a02:	8f 01       	movw	r16, r30
     a04:	89 27       	eor	r24, r25
     a06:	0e 94 5b 03 	call	0x6b6	; 0x6b6 <crc_table>
     a0a:	0c 15       	cp	r16, r12
     a0c:	1d 05       	cpc	r17, r13
     a0e:	b9 f7       	brne	.-18     	; 0x9fe <getTemp+0x5c>
     a10:	88 23       	and	r24, r24
     a12:	e9 f4       	brne	.+58     	; 0xa4e <getTemp+0xac>
     a14:	9a 81       	ldd	r25, Y+2	; 0x02
     a16:	80 e0       	ldi	r24, 0x00	; 0
     a18:	69 81       	ldd	r22, Y+1	; 0x01
     a1a:	70 e0       	ldi	r23, 0x00	; 0
     a1c:	68 2b       	or	r22, r24
     a1e:	79 2b       	or	r23, r25
     a20:	88 27       	eor	r24, r24
     a22:	77 fd       	sbrc	r23, 7
     a24:	80 95       	com	r24
     a26:	98 2f       	mov	r25, r24
     a28:	0e 94 1a 0b 	call	0x1634	; 0x1634 <__floatsisf>
     a2c:	20 e0       	ldi	r18, 0x00	; 0
     a2e:	30 e0       	ldi	r19, 0x00	; 0
     a30:	40 e8       	ldi	r20, 0x80	; 128
     a32:	5d e3       	ldi	r21, 0x3D	; 61
     a34:	0e 94 e6 0b 	call	0x17cc	; 0x17cc <__mulsf3>
     a38:	20 e0       	ldi	r18, 0x00	; 0
     a3a:	30 e0       	ldi	r19, 0x00	; 0
     a3c:	40 e2       	ldi	r20, 0x20	; 32
     a3e:	51 e4       	ldi	r21, 0x41	; 65
     a40:	0e 94 e6 0b 	call	0x17cc	; 0x17cc <__mulsf3>
     a44:	0e 94 d0 0a 	call	0x15a0	; 0x15a0 <ceil>
     a48:	0e 94 e7 0a 	call	0x15ce	; 0x15ce <__fixsfsi>
     a4c:	02 c0       	rjmp	.+4      	; 0xa52 <getTemp+0xb0>
     a4e:	68 e1       	ldi	r22, 0x18	; 24
     a50:	7c ef       	ldi	r23, 0xFC	; 252
     a52:	cb 01       	movw	r24, r22
     a54:	29 96       	adiw	r28, 0x09	; 9
     a56:	0f b6       	in	r0, 0x3f	; 63
     a58:	f8 94       	cli
     a5a:	de bf       	out	0x3e, r29	; 62
     a5c:	0f be       	out	0x3f, r0	; 63
     a5e:	cd bf       	out	0x3d, r28	; 61
     a60:	cf 91       	pop	r28
     a62:	df 91       	pop	r29
     a64:	1f 91       	pop	r17
     a66:	0f 91       	pop	r16
     a68:	ff 90       	pop	r15
     a6a:	ef 90       	pop	r14
     a6c:	df 90       	pop	r13
     a6e:	cf 90       	pop	r12
     a70:	08 95       	ret

00000a72 <checkTemp>:
     a72:	80 91 af 00 	lds	r24, 0x00AF
     a76:	81 50       	subi	r24, 0x01	; 1
     a78:	80 93 af 00 	sts	0x00AF, r24
     a7c:	88 23       	and	r24, r24
     a7e:	09 f0       	breq	.+2      	; 0xa82 <checkTemp+0x10>
     a80:	76 c0       	rjmp	.+236    	; 0xb6e <checkTemp+0xfc>
     a82:	80 91 96 00 	lds	r24, 0x0096
     a86:	88 23       	and	r24, r24
     a88:	11 f0       	breq	.+4      	; 0xa8e <checkTemp+0x1c>
     a8a:	f8 94       	cli
     a8c:	15 ba       	out	0x15, r1	; 21
     a8e:	80 91 8c 00 	lds	r24, 0x008C
     a92:	80 93 af 00 	sts	0x00AF, r24
     a96:	80 91 b1 00 	lds	r24, 0x00B1
     a9a:	e0 91 b0 00 	lds	r30, 0x00B0
     a9e:	88 23       	and	r24, r24
     aa0:	41 f1       	breq	.+80     	; 0xaf2 <checkTemp+0x80>
     aa2:	f0 e0       	ldi	r31, 0x00	; 0
     aa4:	a3 e0       	ldi	r26, 0x03	; 3
     aa6:	ee 0f       	add	r30, r30
     aa8:	ff 1f       	adc	r31, r31
     aaa:	aa 95       	dec	r26
     aac:	e1 f7       	brne	.-8      	; 0xaa6 <checkTemp+0x34>
     aae:	e6 54       	subi	r30, 0x46	; 70
     ab0:	ff 4f       	sbci	r31, 0xFF	; 255
     ab2:	80 81       	ld	r24, Z
     ab4:	88 23       	and	r24, r24
     ab6:	99 f0       	breq	.+38     	; 0xade <checkTemp+0x6c>
     ab8:	0e 94 83 03 	call	0x706	; 0x706 <OW_M_reset>
     abc:	88 23       	and	r24, r24
     abe:	79 f0       	breq	.+30     	; 0xade <checkTemp+0x6c>
     ac0:	80 91 b0 00 	lds	r24, 0x00B0
     ac4:	90 e0       	ldi	r25, 0x00	; 0
     ac6:	e3 e0       	ldi	r30, 0x03	; 3
     ac8:	88 0f       	add	r24, r24
     aca:	99 1f       	adc	r25, r25
     acc:	ea 95       	dec	r30
     ace:	e1 f7       	brne	.-8      	; 0xac8 <checkTemp+0x56>
     ad0:	86 54       	subi	r24, 0x46	; 70
     ad2:	9f 4f       	sbci	r25, 0xFF	; 255
     ad4:	0e 94 b0 04 	call	0x960	; 0x960 <OW_M_matchROM>
     ad8:	84 e4       	ldi	r24, 0x44	; 68
     ada:	0e 94 ca 03 	call	0x794	; 0x794 <OW_M_writeByte>
     ade:	80 91 b0 00 	lds	r24, 0x00B0
     ae2:	8f 5f       	subi	r24, 0xFF	; 255
     ae4:	80 93 b0 00 	sts	0x00B0, r24
     ae8:	85 30       	cpi	r24, 0x05	; 5
     aea:	a8 f1       	brcs	.+106    	; 0xb56 <checkTemp+0xe4>
     aec:	10 92 b0 00 	sts	0x00B0, r1
     af0:	32 c0       	rjmp	.+100    	; 0xb56 <checkTemp+0xe4>
     af2:	f0 e0       	ldi	r31, 0x00	; 0
     af4:	cf 01       	movw	r24, r30
     af6:	73 e0       	ldi	r23, 0x03	; 3
     af8:	88 0f       	add	r24, r24
     afa:	99 1f       	adc	r25, r25
     afc:	7a 95       	dec	r23
     afe:	e1 f7       	brne	.-8      	; 0xaf8 <checkTemp+0x86>
     b00:	86 54       	subi	r24, 0x46	; 70
     b02:	9f 4f       	sbci	r25, 0xFF	; 255
     b04:	dc 01       	movw	r26, r24
     b06:	2c 91       	ld	r18, X
     b08:	22 23       	and	r18, r18
     b0a:	e9 f0       	breq	.+58     	; 0xb46 <checkTemp+0xd4>
     b0c:	0e 94 d1 04 	call	0x9a2	; 0x9a2 <getTemp>
     b10:	e0 91 b0 00 	lds	r30, 0x00B0
     b14:	bc ef       	ldi	r27, 0xFC	; 252
     b16:	88 31       	cpi	r24, 0x18	; 24
     b18:	9b 07       	cpc	r25, r27
     b1a:	59 f4       	brne	.+22     	; 0xb32 <checkTemp+0xc0>
     b1c:	f0 e0       	ldi	r31, 0x00	; 0
     b1e:	df 01       	movw	r26, r30
     b20:	a6 55       	subi	r26, 0x56	; 86
     b22:	bf 4f       	sbci	r27, 0xFF	; 255
     b24:	2c 91       	ld	r18, X
     b26:	32 2f       	mov	r19, r18
     b28:	3f 5f       	subi	r19, 0xFF	; 255
     b2a:	3c 93       	st	X, r19
     b2c:	2b 30       	cpi	r18, 0x0B	; 11
     b2e:	98 f0       	brcs	.+38     	; 0xb56 <checkTemp+0xe4>
     b30:	05 c0       	rjmp	.+10     	; 0xb3c <checkTemp+0xca>
     b32:	f0 e0       	ldi	r31, 0x00	; 0
     b34:	df 01       	movw	r26, r30
     b36:	a6 55       	subi	r26, 0x56	; 86
     b38:	bf 4f       	sbci	r27, 0xFF	; 255
     b3a:	1c 92       	st	X, r1
     b3c:	ee 0f       	add	r30, r30
     b3e:	ff 1f       	adc	r31, r31
     b40:	ee 57       	subi	r30, 0x7E	; 126
     b42:	ff 4f       	sbci	r31, 0xFF	; 255
     b44:	06 c0       	rjmp	.+12     	; 0xb52 <checkTemp+0xe0>
     b46:	ee 0f       	add	r30, r30
     b48:	ff 1f       	adc	r31, r31
     b4a:	ee 57       	subi	r30, 0x7E	; 126
     b4c:	ff 4f       	sbci	r31, 0xFF	; 255
     b4e:	88 e1       	ldi	r24, 0x18	; 24
     b50:	9c ef       	ldi	r25, 0xFC	; 252
     b52:	91 83       	std	Z+1, r25	; 0x01
     b54:	80 83       	st	Z, r24
     b56:	80 91 96 00 	lds	r24, 0x0096
     b5a:	88 23       	and	r24, r24
     b5c:	09 f0       	breq	.+2      	; 0xb60 <checkTemp+0xee>
     b5e:	78 94       	sei
     b60:	81 e0       	ldi	r24, 0x01	; 1
     b62:	90 91 b1 00 	lds	r25, 0x00B1
     b66:	91 11       	cpse	r25, r1
     b68:	80 e0       	ldi	r24, 0x00	; 0
     b6a:	80 93 b1 00 	sts	0x00B1, r24
     b6e:	08 95       	ret

00000b70 <OW_M_startLoading>:
     b70:	0f 93       	push	r16
     b72:	1f 93       	push	r17
     b74:	14 e1       	ldi	r17, 0x14	; 20
     b76:	01 e0       	ldi	r16, 0x01	; 1
     b78:	00 93 af 00 	sts	0x00AF, r16
     b7c:	0e 94 39 05 	call	0xa72	; 0xa72 <checkTemp>
     b80:	8f ef       	ldi	r24, 0xFF	; 255
     b82:	90 e7       	ldi	r25, 0x70	; 112
     b84:	a2 e0       	ldi	r26, 0x02	; 2
     b86:	81 50       	subi	r24, 0x01	; 1
     b88:	90 40       	sbci	r25, 0x00	; 0
     b8a:	a0 40       	sbci	r26, 0x00	; 0
     b8c:	e1 f7       	brne	.-8      	; 0xb86 <OW_M_startLoading+0x16>
     b8e:	00 c0       	rjmp	.+0      	; 0xb90 <OW_M_startLoading+0x20>
     b90:	00 00       	nop
     b92:	11 50       	subi	r17, 0x01	; 1
     b94:	89 f7       	brne	.-30     	; 0xb78 <OW_M_startLoading+0x8>
     b96:	1f 91       	pop	r17
     b98:	0f 91       	pop	r16
     b9a:	08 95       	ret

00000b9c <ow_slave_init>:
     b9c:	cf 93       	push	r28
     b9e:	df 93       	push	r29
     ba0:	cd e8       	ldi	r28, 0x8D	; 141
     ba2:	d0 e0       	ldi	r29, 0x00	; 0
     ba4:	80 e0       	ldi	r24, 0x00	; 0
     ba6:	99 91       	ld	r25, Y+
     ba8:	89 27       	eor	r24, r25
     baa:	0e 94 5b 03 	call	0x6b6	; 0x6b6 <crc_table>
     bae:	90 e0       	ldi	r25, 0x00	; 0
     bb0:	c4 39       	cpi	r28, 0x94	; 148
     bb2:	d9 07       	cpc	r29, r25
     bb4:	c1 f7       	brne	.-16     	; 0xba6 <ow_slave_init+0xa>
     bb6:	80 93 94 00 	sts	0x0094, r24
     bba:	8b 98       	cbi	0x11, 3	; 17
     bbc:	88 e0       	ldi	r24, 0x08	; 8
     bbe:	85 bf       	out	0x35, r24	; 53
     bc0:	8b b7       	in	r24, 0x3b	; 59
     bc2:	80 68       	ori	r24, 0x80	; 128
     bc4:	8b bf       	out	0x3b, r24	; 59
     bc6:	df 91       	pop	r29
     bc8:	cf 91       	pop	r28
     bca:	08 95       	ret

00000bcc <OW_S_readBit>:
     bcc:	88 ee       	ldi	r24, 0xE8	; 232
     bce:	93 e0       	ldi	r25, 0x03	; 3
     bd0:	02 c0       	rjmp	.+4      	; 0xbd6 <OW_S_readBit+0xa>
     bd2:	01 97       	sbiw	r24, 0x01	; 1
     bd4:	11 f0       	breq	.+4      	; 0xbda <OW_S_readBit+0xe>
     bd6:	83 99       	sbic	0x10, 3	; 16
     bd8:	fc cf       	rjmp	.-8      	; 0xbd2 <OW_S_readBit+0x6>
     bda:	85 e3       	ldi	r24, 0x35	; 53
     bdc:	8a 95       	dec	r24
     bde:	f1 f7       	brne	.-4      	; 0xbdc <OW_S_readBit+0x10>
     be0:	00 00       	nop
     be2:	81 e0       	ldi	r24, 0x01	; 1
     be4:	83 9b       	sbis	0x10, 3	; 16
     be6:	80 e0       	ldi	r24, 0x00	; 0
     be8:	20 e0       	ldi	r18, 0x00	; 0
     bea:	30 e0       	ldi	r19, 0x00	; 0
     bec:	06 c0       	rjmp	.+12     	; 0xbfa <OW_S_readBit+0x2e>
     bee:	2f 5f       	subi	r18, 0xFF	; 255
     bf0:	3f 4f       	sbci	r19, 0xFF	; 255
     bf2:	93 e0       	ldi	r25, 0x03	; 3
     bf4:	28 3e       	cpi	r18, 0xE8	; 232
     bf6:	39 07       	cpc	r19, r25
     bf8:	11 f0       	breq	.+4      	; 0xbfe <OW_S_readBit+0x32>
     bfa:	83 9b       	sbis	0x10, 3	; 16
     bfc:	f8 cf       	rjmp	.-16     	; 0xbee <OW_S_readBit+0x22>
     bfe:	08 95       	ret

00000c00 <OW_S_readByte>:
     c00:	0f 93       	push	r16
     c02:	1f 93       	push	r17
     c04:	88 ee       	ldi	r24, 0xE8	; 232
     c06:	93 e0       	ldi	r25, 0x03	; 3
     c08:	02 c0       	rjmp	.+4      	; 0xc0e <OW_S_readByte+0xe>
     c0a:	01 97       	sbiw	r24, 0x01	; 1
     c0c:	11 f0       	breq	.+4      	; 0xc12 <OW_S_readByte+0x12>
     c0e:	83 9b       	sbis	0x10, 3	; 16
     c10:	fc cf       	rjmp	.-8      	; 0xc0a <OW_S_readByte+0xa>
     c12:	08 e0       	ldi	r16, 0x08	; 8
     c14:	10 e0       	ldi	r17, 0x00	; 0
     c16:	16 95       	lsr	r17
     c18:	0e 94 e6 05 	call	0xbcc	; 0xbcc <OW_S_readBit>
     c1c:	81 11       	cpse	r24, r1
     c1e:	10 68       	ori	r17, 0x80	; 128
     c20:	01 50       	subi	r16, 0x01	; 1
     c22:	c9 f7       	brne	.-14     	; 0xc16 <OW_S_readByte+0x16>
     c24:	81 2f       	mov	r24, r17
     c26:	1f 91       	pop	r17
     c28:	0f 91       	pop	r16
     c2a:	08 95       	ret

00000c2c <OW_S_writeBit>:
     c2c:	28 ee       	ldi	r18, 0xE8	; 232
     c2e:	33 e0       	ldi	r19, 0x03	; 3
     c30:	03 c0       	rjmp	.+6      	; 0xc38 <OW_S_writeBit+0xc>
     c32:	21 50       	subi	r18, 0x01	; 1
     c34:	30 40       	sbci	r19, 0x00	; 0
     c36:	11 f0       	breq	.+4      	; 0xc3c <OW_S_writeBit+0x10>
     c38:	83 99       	sbic	0x10, 3	; 16
     c3a:	fb cf       	rjmp	.-10     	; 0xc32 <OW_S_writeBit+0x6>
     c3c:	8b 98       	cbi	0x11, 3	; 17
     c3e:	88 23       	and	r24, r24
     c40:	09 f4       	brne	.+2      	; 0xc44 <OW_S_writeBit+0x18>
     c42:	8b 9a       	sbi	0x11, 3	; 17
     c44:	80 ea       	ldi	r24, 0xA0	; 160
     c46:	8a 95       	dec	r24
     c48:	f1 f7       	brne	.-4      	; 0xc46 <OW_S_writeBit+0x1a>
     c4a:	8b 98       	cbi	0x11, 3	; 17
     c4c:	88 ee       	ldi	r24, 0xE8	; 232
     c4e:	93 e0       	ldi	r25, 0x03	; 3
     c50:	02 c0       	rjmp	.+4      	; 0xc56 <OW_S_writeBit+0x2a>
     c52:	01 97       	sbiw	r24, 0x01	; 1
     c54:	11 f0       	breq	.+4      	; 0xc5a <OW_S_writeBit+0x2e>
     c56:	83 9b       	sbis	0x10, 3	; 16
     c58:	fc cf       	rjmp	.-8      	; 0xc52 <OW_S_writeBit+0x26>
     c5a:	08 95       	ret

00000c5c <OW_S_writeByte>:
     c5c:	0f 93       	push	r16
     c5e:	1f 93       	push	r17
     c60:	08 2f       	mov	r16, r24
     c62:	28 ee       	ldi	r18, 0xE8	; 232
     c64:	33 e0       	ldi	r19, 0x03	; 3
     c66:	03 c0       	rjmp	.+6      	; 0xc6e <OW_S_writeByte+0x12>
     c68:	21 50       	subi	r18, 0x01	; 1
     c6a:	30 40       	sbci	r19, 0x00	; 0
     c6c:	11 f0       	breq	.+4      	; 0xc72 <OW_S_writeByte+0x16>
     c6e:	83 9b       	sbis	0x10, 3	; 16
     c70:	fb cf       	rjmp	.-10     	; 0xc68 <OW_S_writeByte+0xc>
     c72:	18 e0       	ldi	r17, 0x08	; 8
     c74:	80 2f       	mov	r24, r16
     c76:	81 70       	andi	r24, 0x01	; 1
     c78:	0e 94 16 06 	call	0xc2c	; 0xc2c <OW_S_writeBit>
     c7c:	06 95       	lsr	r16
     c7e:	11 50       	subi	r17, 0x01	; 1
     c80:	c9 f7       	brne	.-14     	; 0xc74 <OW_S_writeByte+0x18>
     c82:	1f 91       	pop	r17
     c84:	0f 91       	pop	r16
     c86:	08 95       	ret

00000c88 <ow_s_make_outpack>:
     c88:	cf 92       	push	r12
     c8a:	df 92       	push	r13
     c8c:	ff 92       	push	r15
     c8e:	0f 93       	push	r16
     c90:	1f 93       	push	r17
     c92:	df 93       	push	r29
     c94:	cf 93       	push	r28
     c96:	0f 92       	push	r0
     c98:	cd b7       	in	r28, 0x3d	; 61
     c9a:	de b7       	in	r29, 0x3e	; 62
     c9c:	8c b7       	in	r24, 0x3c	; 60
     c9e:	91 e0       	ldi	r25, 0x01	; 1
     ca0:	88 23       	and	r24, r24
     ca2:	09 f4       	brne	.+2      	; 0xca6 <ow_s_make_outpack+0x1e>
     ca4:	90 e0       	ldi	r25, 0x00	; 0
     ca6:	d8 99       	sbic	0x1b, 0	; 27
     ca8:	92 60       	ori	r25, 0x02	; 2
     caa:	d9 99       	sbic	0x1b, 1	; 27
     cac:	94 60       	ori	r25, 0x04	; 4
     cae:	80 91 a0 00 	lds	r24, 0x00A0
     cb2:	81 11       	cpse	r24, r1
     cb4:	98 60       	ori	r25, 0x08	; 8
     cb6:	80 91 a1 00 	lds	r24, 0x00A1
     cba:	81 11       	cpse	r24, r1
     cbc:	90 61       	ori	r25, 0x10	; 16
     cbe:	80 91 a2 00 	lds	r24, 0x00A2
     cc2:	81 11       	cpse	r24, r1
     cc4:	90 62       	ori	r25, 0x20	; 32
     cc6:	b2 e8       	ldi	r27, 0x82	; 130
     cc8:	cb 2e       	mov	r12, r27
     cca:	b0 e0       	ldi	r27, 0x00	; 0
     ccc:	db 2e       	mov	r13, r27
     cce:	01 ef       	ldi	r16, 0xF1	; 241
     cd0:	10 e0       	ldi	r17, 0x00	; 0
     cd2:	80 e0       	ldi	r24, 0x00	; 0
     cd4:	f6 01       	movw	r30, r12
     cd6:	20 81       	ld	r18, Z
     cd8:	f1 80       	ldd	r15, Z+1	; 0x01
     cda:	42 e0       	ldi	r20, 0x02	; 2
     cdc:	50 e0       	ldi	r21, 0x00	; 0
     cde:	c4 0e       	add	r12, r20
     ce0:	d5 1e       	adc	r13, r21
     ce2:	f8 01       	movw	r30, r16
     ce4:	20 83       	st	Z, r18
     ce6:	82 27       	eor	r24, r18
     ce8:	99 83       	std	Y+1, r25	; 0x01
     cea:	0e 94 5b 03 	call	0x6b6	; 0x6b6 <crc_table>
     cee:	f8 01       	movw	r30, r16
     cf0:	f1 82       	std	Z+1, r15	; 0x01
     cf2:	8f 25       	eor	r24, r15
     cf4:	0e 94 5b 03 	call	0x6b6	; 0x6b6 <crc_table>
     cf8:	0e 5f       	subi	r16, 0xFE	; 254
     cfa:	1f 4f       	sbci	r17, 0xFF	; 255
     cfc:	99 81       	ldd	r25, Y+1	; 0x01
     cfe:	fc e8       	ldi	r31, 0x8C	; 140
     d00:	cf 16       	cp	r12, r31
     d02:	f0 e0       	ldi	r31, 0x00	; 0
     d04:	df 06       	cpc	r13, r31
     d06:	31 f7       	brne	.-52     	; 0xcd4 <ow_s_make_outpack+0x4c>
     d08:	90 93 fb 00 	sts	0x00FB, r25
     d0c:	89 27       	eor	r24, r25
     d0e:	0e 94 5b 03 	call	0x6b6	; 0x6b6 <crc_table>
     d12:	80 93 fc 00 	sts	0x00FC, r24
     d16:	0f 90       	pop	r0
     d18:	cf 91       	pop	r28
     d1a:	df 91       	pop	r29
     d1c:	1f 91       	pop	r17
     d1e:	0f 91       	pop	r16
     d20:	ff 90       	pop	r15
     d22:	df 90       	pop	r13
     d24:	cf 90       	pop	r12
     d26:	08 95       	ret

00000d28 <OW_S_action>:
     d28:	df 92       	push	r13
     d2a:	ef 92       	push	r14
     d2c:	ff 92       	push	r15
     d2e:	0f 93       	push	r16
     d30:	1f 93       	push	r17
     d32:	cf 93       	push	r28
     d34:	df 93       	push	r29
     d36:	88 ee       	ldi	r24, 0xE8	; 232
     d38:	93 e0       	ldi	r25, 0x03	; 3
     d3a:	02 c0       	rjmp	.+4      	; 0xd40 <OW_S_action+0x18>
     d3c:	01 97       	sbiw	r24, 0x01	; 1
     d3e:	11 f0       	breq	.+4      	; 0xd44 <OW_S_action+0x1c>
     d40:	83 9b       	sbis	0x10, 3	; 16
     d42:	fc cf       	rjmp	.-8      	; 0xd3c <OW_S_action+0x14>
     d44:	80 e5       	ldi	r24, 0x50	; 80
     d46:	8a 95       	dec	r24
     d48:	f1 f7       	brne	.-4      	; 0xd46 <OW_S_action+0x1e>
     d4a:	8b 9a       	sbi	0x11, 3	; 17
     d4c:	87 ec       	ldi	r24, 0xC7	; 199
     d4e:	90 e0       	ldi	r25, 0x00	; 0
     d50:	01 97       	sbiw	r24, 0x01	; 1
     d52:	f1 f7       	brne	.-4      	; 0xd50 <OW_S_action+0x28>
     d54:	00 c0       	rjmp	.+0      	; 0xd56 <OW_S_action+0x2e>
     d56:	00 00       	nop
     d58:	8b 98       	cbi	0x11, 3	; 17
     d5a:	88 ee       	ldi	r24, 0xE8	; 232
     d5c:	93 e0       	ldi	r25, 0x03	; 3
     d5e:	02 c0       	rjmp	.+4      	; 0xd64 <OW_S_action+0x3c>
     d60:	01 97       	sbiw	r24, 0x01	; 1
     d62:	11 f0       	breq	.+4      	; 0xd68 <OW_S_action+0x40>
     d64:	83 9b       	sbis	0x10, 3	; 16
     d66:	fc cf       	rjmp	.-8      	; 0xd60 <OW_S_action+0x38>
     d68:	0e 94 00 06 	call	0xc00	; 0xc00 <OW_S_readByte>
     d6c:	8c 3e       	cpi	r24, 0xEC	; 236
     d6e:	31 f0       	breq	.+12     	; 0xd7c <OW_S_action+0x54>
     d70:	80 3f       	cpi	r24, 0xF0	; 240
     d72:	21 f0       	breq	.+8      	; 0xd7c <OW_S_action+0x54>
     d74:	85 35       	cpi	r24, 0x55	; 85
     d76:	09 f0       	breq	.+2      	; 0xd7a <OW_S_action+0x52>
     d78:	42 c0       	rjmp	.+132    	; 0xdfe <OW_S_action+0xd6>
     d7a:	25 c0       	rjmp	.+74     	; 0xdc6 <OW_S_action+0x9e>
     d7c:	8c 3e       	cpi	r24, 0xEC	; 236
     d7e:	21 f4       	brne	.+8      	; 0xd88 <OW_S_action+0x60>
     d80:	80 91 97 00 	lds	r24, 0x0097
     d84:	88 23       	and	r24, r24
     d86:	d9 f5       	brne	.+118    	; 0xdfe <OW_S_action+0xd6>
     d88:	10 e0       	ldi	r17, 0x00	; 0
     d8a:	dd 24       	eor	r13, r13
     d8c:	d3 94       	inc	r13
     d8e:	e1 2f       	mov	r30, r17
     d90:	f0 e0       	ldi	r31, 0x00	; 0
     d92:	e3 57       	subi	r30, 0x73	; 115
     d94:	ff 4f       	sbci	r31, 0xFF	; 255
     d96:	f0 80       	ld	r15, Z
     d98:	08 e0       	ldi	r16, 0x08	; 8
     d9a:	ee 24       	eor	r14, r14
     d9c:	e3 94       	inc	r14
     d9e:	ef 20       	and	r14, r15
     da0:	8e 2d       	mov	r24, r14
     da2:	0e 94 16 06 	call	0xc2c	; 0xc2c <OW_S_writeBit>
     da6:	8e 2d       	mov	r24, r14
     da8:	8d 25       	eor	r24, r13
     daa:	0e 94 16 06 	call	0xc2c	; 0xc2c <OW_S_writeBit>
     dae:	0e 94 e6 05 	call	0xbcc	; 0xbcc <OW_S_readBit>
     db2:	8e 15       	cp	r24, r14
     db4:	21 f5       	brne	.+72     	; 0xdfe <OW_S_action+0xd6>
     db6:	01 50       	subi	r16, 0x01	; 1
     db8:	11 f0       	breq	.+4      	; 0xdbe <OW_S_action+0x96>
     dba:	f6 94       	lsr	r15
     dbc:	ee cf       	rjmp	.-36     	; 0xd9a <OW_S_action+0x72>
     dbe:	1f 5f       	subi	r17, 0xFF	; 255
     dc0:	18 30       	cpi	r17, 0x08	; 8
     dc2:	29 f7       	brne	.-54     	; 0xd8e <OW_S_action+0x66>
     dc4:	1c c0       	rjmp	.+56     	; 0xdfe <OW_S_action+0xd6>
     dc6:	cd e8       	ldi	r28, 0x8D	; 141
     dc8:	d0 e0       	ldi	r29, 0x00	; 0
     dca:	0e 94 00 06 	call	0xc00	; 0xc00 <OW_S_readByte>
     dce:	99 91       	ld	r25, Y+
     dd0:	89 17       	cp	r24, r25
     dd2:	a9 f4       	brne	.+42     	; 0xdfe <OW_S_action+0xd6>
     dd4:	90 e0       	ldi	r25, 0x00	; 0
     dd6:	c5 39       	cpi	r28, 0x95	; 149
     dd8:	d9 07       	cpc	r29, r25
     dda:	b9 f7       	brne	.-18     	; 0xdca <OW_S_action+0xa2>
     ddc:	0e 94 00 06 	call	0xc00	; 0xc00 <OW_S_readByte>
     de0:	80 3a       	cpi	r24, 0xA0	; 160
     de2:	69 f4       	brne	.+26     	; 0xdfe <OW_S_action+0xd6>
     de4:	c1 ef       	ldi	r28, 0xF1	; 241
     de6:	d0 e0       	ldi	r29, 0x00	; 0
     de8:	89 91       	ld	r24, Y+
     dea:	0e 94 2e 06 	call	0xc5c	; 0xc5c <OW_S_writeByte>
     dee:	80 e0       	ldi	r24, 0x00	; 0
     df0:	cd 3f       	cpi	r28, 0xFD	; 253
     df2:	d8 07       	cpc	r29, r24
     df4:	c9 f7       	brne	.-14     	; 0xde8 <OW_S_action+0xc0>
     df6:	10 92 b3 00 	sts	0x00B3, r1
     dfa:	10 92 b2 00 	sts	0x00B2, r1
     dfe:	df 91       	pop	r29
     e00:	cf 91       	pop	r28
     e02:	1f 91       	pop	r17
     e04:	0f 91       	pop	r16
     e06:	ff 90       	pop	r15
     e08:	ef 90       	pop	r14
     e0a:	df 90       	pop	r13
     e0c:	08 95       	ret

00000e0e <__vector_2>:
     e0e:	1f 92       	push	r1
     e10:	0f 92       	push	r0
     e12:	0f b6       	in	r0, 0x3f	; 63
     e14:	0f 92       	push	r0
     e16:	11 24       	eor	r1, r1
     e18:	8f 93       	push	r24
     e1a:	05 b6       	in	r0, 0x35	; 53
     e1c:	02 fe       	sbrs	r0, 2
     e1e:	04 c0       	rjmp	.+8      	; 0xe28 <__vector_2+0x1a>
     e20:	10 92 95 00 	sts	0x0095, r1
     e24:	88 e0       	ldi	r24, 0x08	; 8
     e26:	09 c0       	rjmp	.+18     	; 0xe3a <__vector_2+0x2c>
     e28:	8d ec       	ldi	r24, 0xCD	; 205
     e2a:	82 bf       	out	0x32, r24	; 50
     e2c:	81 e0       	ldi	r24, 0x01	; 1
     e2e:	80 93 95 00 	sts	0x0095, r24
     e32:	89 b7       	in	r24, 0x39	; 57
     e34:	81 60       	ori	r24, 0x01	; 1
     e36:	89 bf       	out	0x39, r24	; 57
     e38:	8c e0       	ldi	r24, 0x0C	; 12
     e3a:	85 bf       	out	0x35, r24	; 53
     e3c:	8f 91       	pop	r24
     e3e:	0f 90       	pop	r0
     e40:	0f be       	out	0x3f, r0	; 63
     e42:	0f 90       	pop	r0
     e44:	1f 90       	pop	r1
     e46:	18 95       	reti

00000e48 <__vector_9>:
     e48:	1f 92       	push	r1
     e4a:	0f 92       	push	r0
     e4c:	0f b6       	in	r0, 0x3f	; 63
     e4e:	0f 92       	push	r0
     e50:	11 24       	eor	r1, r1
     e52:	2f 93       	push	r18
     e54:	3f 93       	push	r19
     e56:	4f 93       	push	r20
     e58:	5f 93       	push	r21
     e5a:	6f 93       	push	r22
     e5c:	7f 93       	push	r23
     e5e:	8f 93       	push	r24
     e60:	9f 93       	push	r25
     e62:	af 93       	push	r26
     e64:	bf 93       	push	r27
     e66:	ef 93       	push	r30
     e68:	ff 93       	push	r31
     e6a:	80 91 96 00 	lds	r24, 0x0096
     e6e:	88 23       	and	r24, r24
     e70:	d9 f4       	brne	.+54     	; 0xea8 <__vector_9+0x60>
     e72:	80 91 b2 00 	lds	r24, 0x00B2
     e76:	90 91 b3 00 	lds	r25, 0x00B3
     e7a:	25 e7       	ldi	r18, 0x75	; 117
     e7c:	80 33       	cpi	r24, 0x30	; 48
     e7e:	92 07       	cpc	r25, r18
     e80:	50 f4       	brcc	.+20     	; 0xe96 <__vector_9+0x4e>
     e82:	20 91 97 00 	lds	r18, 0x0097
     e86:	22 23       	and	r18, r18
     e88:	31 f4       	brne	.+12     	; 0xe96 <__vector_9+0x4e>
     e8a:	01 96       	adiw	r24, 0x01	; 1
     e8c:	90 93 b3 00 	sts	0x00B3, r25
     e90:	80 93 b2 00 	sts	0x00B2, r24
     e94:	09 c0       	rjmp	.+18     	; 0xea8 <__vector_9+0x60>
     e96:	80 91 95 00 	lds	r24, 0x0095
     e9a:	88 23       	and	r24, r24
     e9c:	29 f0       	breq	.+10     	; 0xea8 <__vector_9+0x60>
     e9e:	10 92 95 00 	sts	0x0095, r1
     ea2:	15 ba       	out	0x15, r1	; 21
     ea4:	0e 94 94 06 	call	0xd28	; 0xd28 <OW_S_action>
     ea8:	ff 91       	pop	r31
     eaa:	ef 91       	pop	r30
     eac:	bf 91       	pop	r27
     eae:	af 91       	pop	r26
     eb0:	9f 91       	pop	r25
     eb2:	8f 91       	pop	r24
     eb4:	7f 91       	pop	r23
     eb6:	6f 91       	pop	r22
     eb8:	5f 91       	pop	r21
     eba:	4f 91       	pop	r20
     ebc:	3f 91       	pop	r19
     ebe:	2f 91       	pop	r18
     ec0:	0f 90       	pop	r0
     ec2:	0f be       	out	0x3f, r0	; 63
     ec4:	0f 90       	pop	r0
     ec6:	1f 90       	pop	r1
     ec8:	18 95       	reti

00000eca <btn_sel_handler>:
     eca:	1f 93       	push	r17
     ecc:	18 2f       	mov	r17, r24
     ece:	80 91 96 00 	lds	r24, 0x0096
     ed2:	8a 30       	cpi	r24, 0x0A	; 10
     ed4:	11 f0       	breq	.+4      	; 0xeda <btn_sel_handler+0x10>
     ed6:	0e 94 54 01 	call	0x2a8	; 0x2a8 <clearReleValues>
     eda:	11 23       	and	r17, r17
     edc:	09 f4       	brne	.+2      	; 0xee0 <btn_sel_handler+0x16>
     ede:	4b c0       	rjmp	.+150    	; 0xf76 <btn_sel_handler+0xac>
     ee0:	80 91 b9 00 	lds	r24, 0x00B9
     ee4:	88 23       	and	r24, r24
     ee6:	09 f0       	breq	.+2      	; 0xeea <btn_sel_handler+0x20>
     ee8:	71 c0       	rjmp	.+226    	; 0xfcc <btn_sel_handler+0x102>
     eea:	81 e0       	ldi	r24, 0x01	; 1
     eec:	80 93 b9 00 	sts	0x00B9, r24
     ef0:	80 91 96 00 	lds	r24, 0x0096
     ef4:	88 23       	and	r24, r24
     ef6:	a9 f4       	brne	.+42     	; 0xf22 <btn_sel_handler+0x58>
     ef8:	84 e1       	ldi	r24, 0x14	; 20
     efa:	80 93 96 00 	sts	0x0096, r24
     efe:	e2 ee       	ldi	r30, 0xE2	; 226
     f00:	f0 e0       	ldi	r31, 0x00	; 0
     f02:	80 e1       	ldi	r24, 0x10	; 16
     f04:	81 93       	st	Z+, r24
     f06:	90 e0       	ldi	r25, 0x00	; 0
     f08:	e1 3f       	cpi	r30, 0xF1	; 241
     f0a:	f9 07       	cpc	r31, r25
     f0c:	d9 f7       	brne	.-10     	; 0xf04 <btn_sel_handler+0x3a>
     f0e:	0e 94 54 04 	call	0x8a8	; 0x8a8 <OW_M_scan_devs>
     f12:	0e 94 b8 05 	call	0xb70	; 0xb70 <OW_M_startLoading>
     f16:	85 e1       	ldi	r24, 0x15	; 21
     f18:	80 93 96 00 	sts	0x0096, r24
     f1c:	10 92 60 00 	sts	0x0060, r1
     f20:	26 c0       	rjmp	.+76     	; 0xf6e <btn_sel_handler+0xa4>
     f22:	10 92 96 00 	sts	0x0096, r1
     f26:	8f ef       	ldi	r24, 0xFF	; 255
     f28:	9f ef       	ldi	r25, 0xFF	; 255
     f2a:	0e 94 7c 00 	call	0xf8	; 0xf8 <sel_query_sel>
     f2e:	8f ef       	ldi	r24, 0xFF	; 255
     f30:	80 93 60 00 	sts	0x0060, r24
     f34:	80 93 61 00 	sts	0x0061, r24
     f38:	80 93 62 00 	sts	0x0062, r24
     f3c:	10 92 9e 00 	sts	0x009E, r1
     f40:	10 92 9d 00 	sts	0x009D, r1
     f44:	10 92 9c 00 	sts	0x009C, r1
     f48:	e2 ee       	ldi	r30, 0xE2	; 226
     f4a:	f0 e0       	ldi	r31, 0x00	; 0
     f4c:	80 e1       	ldi	r24, 0x10	; 16
     f4e:	81 93       	st	Z+, r24
     f50:	a0 e0       	ldi	r26, 0x00	; 0
     f52:	e1 3f       	cpi	r30, 0xF1	; 241
     f54:	fa 07       	cpc	r31, r26
     f56:	d9 f7       	brne	.-10     	; 0xf4e <btn_sel_handler+0x84>
     f58:	0e 94 5f 01 	call	0x2be	; 0x2be <save_props>
     f5c:	8f ef       	ldi	r24, 0xFF	; 255
     f5e:	99 e6       	ldi	r25, 0x69	; 105
     f60:	a8 e1       	ldi	r26, 0x18	; 24
     f62:	81 50       	subi	r24, 0x01	; 1
     f64:	90 40       	sbci	r25, 0x00	; 0
     f66:	a0 40       	sbci	r26, 0x00	; 0
     f68:	e1 f7       	brne	.-8      	; 0xf62 <btn_sel_handler+0x98>
     f6a:	00 c0       	rjmp	.+0      	; 0xf6c <btn_sel_handler+0xa2>
     f6c:	00 00       	nop
     f6e:	81 e0       	ldi	r24, 0x01	; 1
     f70:	80 93 8c 00 	sts	0x008C, r24
     f74:	2b c0       	rjmp	.+86     	; 0xfcc <btn_sel_handler+0x102>
     f76:	80 91 96 00 	lds	r24, 0x0096
     f7a:	8a 30       	cpi	r24, 0x0A	; 10
     f7c:	61 f0       	breq	.+24     	; 0xf96 <btn_sel_handler+0xcc>
     f7e:	85 31       	cpi	r24, 0x15	; 21
     f80:	b1 f0       	breq	.+44     	; 0xfae <btn_sel_handler+0xe4>
     f82:	88 23       	and	r24, r24
     f84:	19 f5       	brne	.+70     	; 0xfcc <btn_sel_handler+0x102>
     f86:	8a e0       	ldi	r24, 0x0A	; 10
     f88:	80 93 96 00 	sts	0x0096, r24
     f8c:	80 e0       	ldi	r24, 0x00	; 0
     f8e:	90 e0       	ldi	r25, 0x00	; 0
     f90:	0e 94 7c 00 	call	0xf8	; 0xf8 <sel_query_sel>
     f94:	1b c0       	rjmp	.+54     	; 0xfcc <btn_sel_handler+0x102>
     f96:	80 91 b5 00 	lds	r24, 0x00B5
     f9a:	8f 5f       	subi	r24, 0xFF	; 255
     f9c:	80 93 b5 00 	sts	0x00B5, r24
     fa0:	84 30       	cpi	r24, 0x04	; 4
     fa2:	10 f0       	brcs	.+4      	; 0xfa8 <btn_sel_handler+0xde>
     fa4:	10 92 b5 00 	sts	0x00B5, r1
     fa8:	0e 94 a4 00 	call	0x148	; 0x148 <redraw_query_led>
     fac:	0f c0       	rjmp	.+30     	; 0xfcc <btn_sel_handler+0x102>
     fae:	81 e0       	ldi	r24, 0x01	; 1
     fb0:	90 e0       	ldi	r25, 0x00	; 0
     fb2:	20 91 9c 00 	lds	r18, 0x009C
     fb6:	30 91 9d 00 	lds	r19, 0x009D
     fba:	21 15       	cp	r18, r1
     fbc:	31 05       	cpc	r19, r1
     fbe:	11 f0       	breq	.+4      	; 0xfc4 <btn_sel_handler+0xfa>
     fc0:	80 e0       	ldi	r24, 0x00	; 0
     fc2:	90 e0       	ldi	r25, 0x00	; 0
     fc4:	90 93 9d 00 	sts	0x009D, r25
     fc8:	80 93 9c 00 	sts	0x009C, r24
     fcc:	1f 91       	pop	r17
     fce:	08 95       	ret

00000fd0 <btn_up_handler>:
     fd0:	80 91 60 00 	lds	r24, 0x0060
     fd4:	90 91 96 00 	lds	r25, 0x0096
     fd8:	9a 30       	cpi	r25, 0x0A	; 10
     fda:	e9 f0       	breq	.+58     	; 0x1016 <btn_up_handler+0x46>
     fdc:	95 31       	cpi	r25, 0x15	; 21
     fde:	09 f4       	brne	.+2      	; 0xfe2 <btn_up_handler+0x12>
     fe0:	83 c0       	rjmp	.+262    	; 0x10e8 <btn_up_handler+0x118>
     fe2:	99 23       	and	r25, r25
     fe4:	09 f0       	breq	.+2      	; 0xfe8 <btn_up_handler+0x18>
     fe6:	99 c0       	rjmp	.+306    	; 0x111a <btn_up_handler+0x14a>
     fe8:	80 91 b7 00 	lds	r24, 0x00B7
     fec:	88 23       	and	r24, r24
     fee:	61 f0       	breq	.+24     	; 0x1008 <btn_up_handler+0x38>
     ff0:	80 91 b8 00 	lds	r24, 0x00B8
     ff4:	88 23       	and	r24, r24
     ff6:	41 f0       	breq	.+16     	; 0x1008 <btn_up_handler+0x38>
     ff8:	81 e0       	ldi	r24, 0x01	; 1
     ffa:	90 91 97 00 	lds	r25, 0x0097
     ffe:	91 11       	cpse	r25, r1
    1000:	80 e0       	ldi	r24, 0x00	; 0
    1002:	80 93 97 00 	sts	0x0097, r24
    1006:	08 95       	ret
    1008:	8c ed       	ldi	r24, 0xDC	; 220
    100a:	95 e0       	ldi	r25, 0x05	; 5
    100c:	90 93 99 00 	sts	0x0099, r25
    1010:	80 93 98 00 	sts	0x0098, r24
    1014:	08 95       	ret
    1016:	80 91 b5 00 	lds	r24, 0x00B5
    101a:	81 30       	cpi	r24, 0x01	; 1
    101c:	b9 f0       	breq	.+46     	; 0x104c <btn_up_handler+0x7c>
    101e:	81 30       	cpi	r24, 0x01	; 1
    1020:	30 f0       	brcs	.+12     	; 0x102e <btn_up_handler+0x5e>
    1022:	82 30       	cpi	r24, 0x02	; 2
    1024:	59 f1       	breq	.+86     	; 0x107c <btn_up_handler+0xac>
    1026:	83 30       	cpi	r24, 0x03	; 3
    1028:	09 f0       	breq	.+2      	; 0x102c <btn_up_handler+0x5c>
    102a:	77 c0       	rjmp	.+238    	; 0x111a <btn_up_handler+0x14a>
    102c:	41 c0       	rjmp	.+130    	; 0x10b0 <btn_up_handler+0xe0>
    102e:	80 91 b4 00 	lds	r24, 0x00B4
    1032:	88 23       	and	r24, r24
    1034:	11 f4       	brne	.+4      	; 0x103a <btn_up_handler+0x6a>
    1036:	85 e0       	ldi	r24, 0x05	; 5
    1038:	01 c0       	rjmp	.+2      	; 0x103c <btn_up_handler+0x6c>
    103a:	81 50       	subi	r24, 0x01	; 1
    103c:	80 93 b4 00 	sts	0x00B4, r24
    1040:	80 91 b4 00 	lds	r24, 0x00B4
    1044:	90 e0       	ldi	r25, 0x00	; 0
    1046:	0e 94 7c 00 	call	0xf8	; 0xf8 <sel_query_sel>
    104a:	08 95       	ret
    104c:	e0 91 b4 00 	lds	r30, 0x00B4
    1050:	f0 e0       	ldi	r31, 0x00	; 0
    1052:	df 01       	movw	r26, r30
    1054:	aa 0f       	add	r26, r26
    1056:	bb 1f       	adc	r27, r27
    1058:	aa 0f       	add	r26, r26
    105a:	bb 1f       	adc	r27, r27
    105c:	a3 50       	subi	r26, 0x03	; 3
    105e:	bf 4f       	sbci	r27, 0xFF	; 255
    1060:	8c 91       	ld	r24, X
    1062:	88 23       	and	r24, r24
    1064:	11 f0       	breq	.+4      	; 0x106a <btn_up_handler+0x9a>
    1066:	81 50       	subi	r24, 0x01	; 1
    1068:	01 c0       	rjmp	.+2      	; 0x106c <btn_up_handler+0x9c>
    106a:	84 e0       	ldi	r24, 0x04	; 4
    106c:	ee 0f       	add	r30, r30
    106e:	ff 1f       	adc	r31, r31
    1070:	ee 0f       	add	r30, r30
    1072:	ff 1f       	adc	r31, r31
    1074:	e3 50       	subi	r30, 0x03	; 3
    1076:	ff 4f       	sbci	r31, 0xFF	; 255
    1078:	80 83       	st	Z, r24
    107a:	33 c0       	rjmp	.+102    	; 0x10e2 <btn_up_handler+0x112>
    107c:	e0 91 b4 00 	lds	r30, 0x00B4
    1080:	f0 e0       	ldi	r31, 0x00	; 0
    1082:	df 01       	movw	r26, r30
    1084:	aa 0f       	add	r26, r26
    1086:	bb 1f       	adc	r27, r27
    1088:	aa 0f       	add	r26, r26
    108a:	bb 1f       	adc	r27, r27
    108c:	a3 50       	subi	r26, 0x03	; 3
    108e:	bf 4f       	sbci	r27, 0xFF	; 255
    1090:	11 96       	adiw	r26, 0x01	; 1
    1092:	8c 91       	ld	r24, X
    1094:	11 97       	sbiw	r26, 0x01	; 1
    1096:	82 30       	cpi	r24, 0x02	; 2
    1098:	11 f0       	breq	.+4      	; 0x109e <btn_up_handler+0xce>
    109a:	8f 5f       	subi	r24, 0xFF	; 255
    109c:	01 c0       	rjmp	.+2      	; 0x10a0 <btn_up_handler+0xd0>
    109e:	80 e0       	ldi	r24, 0x00	; 0
    10a0:	ee 0f       	add	r30, r30
    10a2:	ff 1f       	adc	r31, r31
    10a4:	ee 0f       	add	r30, r30
    10a6:	ff 1f       	adc	r31, r31
    10a8:	e3 50       	subi	r30, 0x03	; 3
    10aa:	ff 4f       	sbci	r31, 0xFF	; 255
    10ac:	81 83       	std	Z+1, r24	; 0x01
    10ae:	19 c0       	rjmp	.+50     	; 0x10e2 <btn_up_handler+0x112>
    10b0:	e0 91 b4 00 	lds	r30, 0x00B4
    10b4:	f0 e0       	ldi	r31, 0x00	; 0
    10b6:	df 01       	movw	r26, r30
    10b8:	aa 0f       	add	r26, r26
    10ba:	bb 1f       	adc	r27, r27
    10bc:	aa 0f       	add	r26, r26
    10be:	bb 1f       	adc	r27, r27
    10c0:	a3 50       	subi	r26, 0x03	; 3
    10c2:	bf 4f       	sbci	r27, 0xFF	; 255
    10c4:	12 96       	adiw	r26, 0x02	; 2
    10c6:	8c 91       	ld	r24, X
    10c8:	12 97       	sbiw	r26, 0x02	; 2
    10ca:	8a 35       	cpi	r24, 0x5A	; 90
    10cc:	11 f0       	breq	.+4      	; 0x10d2 <btn_up_handler+0x102>
    10ce:	8f 5f       	subi	r24, 0xFF	; 255
    10d0:	01 c0       	rjmp	.+2      	; 0x10d4 <btn_up_handler+0x104>
    10d2:	8a e0       	ldi	r24, 0x0A	; 10
    10d4:	ee 0f       	add	r30, r30
    10d6:	ff 1f       	adc	r31, r31
    10d8:	ee 0f       	add	r30, r30
    10da:	ff 1f       	adc	r31, r31
    10dc:	e3 50       	subi	r30, 0x03	; 3
    10de:	ff 4f       	sbci	r31, 0xFF	; 255
    10e0:	82 83       	std	Z+2, r24	; 0x02
    10e2:	0e 94 a4 00 	call	0x148	; 0x148 <redraw_query_led>
    10e6:	08 95       	ret
    10e8:	88 23       	and	r24, r24
    10ea:	11 f4       	brne	.+4      	; 0x10f0 <btn_up_handler+0x120>
    10ec:	94 e0       	ldi	r25, 0x04	; 4
    10ee:	02 c0       	rjmp	.+4      	; 0x10f4 <btn_up_handler+0x124>
    10f0:	98 2f       	mov	r25, r24
    10f2:	91 50       	subi	r25, 0x01	; 1
    10f4:	90 93 60 00 	sts	0x0060, r25
    10f8:	10 92 9b 00 	sts	0x009B, r1
    10fc:	10 92 9a 00 	sts	0x009A, r1
    1100:	20 91 9c 00 	lds	r18, 0x009C
    1104:	30 91 9d 00 	lds	r19, 0x009D
    1108:	21 15       	cp	r18, r1
    110a:	31 05       	cpc	r19, r1
    110c:	31 f0       	breq	.+12     	; 0x111a <btn_up_handler+0x14a>
    110e:	60 91 60 00 	lds	r22, 0x0060
    1112:	90 e0       	ldi	r25, 0x00	; 0
    1114:	70 e0       	ldi	r23, 0x00	; 0
    1116:	0e 94 49 00 	call	0x92	; 0x92 <change_temp_order>
    111a:	08 95       	ret

0000111c <btn_down_handler>:
    111c:	80 91 60 00 	lds	r24, 0x0060
    1120:	90 91 96 00 	lds	r25, 0x0096
    1124:	9a 30       	cpi	r25, 0x0A	; 10
    1126:	e9 f0       	breq	.+58     	; 0x1162 <btn_down_handler+0x46>
    1128:	95 31       	cpi	r25, 0x15	; 21
    112a:	09 f4       	brne	.+2      	; 0x112e <btn_down_handler+0x12>
    112c:	84 c0       	rjmp	.+264    	; 0x1236 <btn_down_handler+0x11a>
    112e:	99 23       	and	r25, r25
    1130:	09 f0       	breq	.+2      	; 0x1134 <btn_down_handler+0x18>
    1132:	9b c0       	rjmp	.+310    	; 0x126a <btn_down_handler+0x14e>
    1134:	80 91 b7 00 	lds	r24, 0x00B7
    1138:	88 23       	and	r24, r24
    113a:	61 f0       	breq	.+24     	; 0x1154 <btn_down_handler+0x38>
    113c:	80 91 b8 00 	lds	r24, 0x00B8
    1140:	88 23       	and	r24, r24
    1142:	41 f0       	breq	.+16     	; 0x1154 <btn_down_handler+0x38>
    1144:	81 e0       	ldi	r24, 0x01	; 1
    1146:	90 91 97 00 	lds	r25, 0x0097
    114a:	91 11       	cpse	r25, r1
    114c:	80 e0       	ldi	r24, 0x00	; 0
    114e:	80 93 97 00 	sts	0x0097, r24
    1152:	08 95       	ret
    1154:	8c ed       	ldi	r24, 0xDC	; 220
    1156:	95 e0       	ldi	r25, 0x05	; 5
    1158:	90 93 99 00 	sts	0x0099, r25
    115c:	80 93 98 00 	sts	0x0098, r24
    1160:	08 95       	ret
    1162:	80 91 b5 00 	lds	r24, 0x00B5
    1166:	81 30       	cpi	r24, 0x01	; 1
    1168:	c1 f0       	breq	.+48     	; 0x119a <btn_down_handler+0x7e>
    116a:	81 30       	cpi	r24, 0x01	; 1
    116c:	30 f0       	brcs	.+12     	; 0x117a <btn_down_handler+0x5e>
    116e:	82 30       	cpi	r24, 0x02	; 2
    1170:	61 f1       	breq	.+88     	; 0x11ca <btn_down_handler+0xae>
    1172:	83 30       	cpi	r24, 0x03	; 3
    1174:	09 f0       	breq	.+2      	; 0x1178 <btn_down_handler+0x5c>
    1176:	79 c0       	rjmp	.+242    	; 0x126a <btn_down_handler+0x14e>
    1178:	42 c0       	rjmp	.+132    	; 0x11fe <btn_down_handler+0xe2>
    117a:	80 91 b4 00 	lds	r24, 0x00B4
    117e:	85 30       	cpi	r24, 0x05	; 5
    1180:	19 f4       	brne	.+6      	; 0x1188 <btn_down_handler+0x6c>
    1182:	10 92 b4 00 	sts	0x00B4, r1
    1186:	03 c0       	rjmp	.+6      	; 0x118e <btn_down_handler+0x72>
    1188:	8f 5f       	subi	r24, 0xFF	; 255
    118a:	80 93 b4 00 	sts	0x00B4, r24
    118e:	80 91 b4 00 	lds	r24, 0x00B4
    1192:	90 e0       	ldi	r25, 0x00	; 0
    1194:	0e 94 7c 00 	call	0xf8	; 0xf8 <sel_query_sel>
    1198:	08 95       	ret
    119a:	e0 91 b4 00 	lds	r30, 0x00B4
    119e:	f0 e0       	ldi	r31, 0x00	; 0
    11a0:	df 01       	movw	r26, r30
    11a2:	aa 0f       	add	r26, r26
    11a4:	bb 1f       	adc	r27, r27
    11a6:	aa 0f       	add	r26, r26
    11a8:	bb 1f       	adc	r27, r27
    11aa:	a3 50       	subi	r26, 0x03	; 3
    11ac:	bf 4f       	sbci	r27, 0xFF	; 255
    11ae:	8c 91       	ld	r24, X
    11b0:	84 30       	cpi	r24, 0x04	; 4
    11b2:	11 f0       	breq	.+4      	; 0x11b8 <btn_down_handler+0x9c>
    11b4:	8f 5f       	subi	r24, 0xFF	; 255
    11b6:	01 c0       	rjmp	.+2      	; 0x11ba <btn_down_handler+0x9e>
    11b8:	80 e0       	ldi	r24, 0x00	; 0
    11ba:	ee 0f       	add	r30, r30
    11bc:	ff 1f       	adc	r31, r31
    11be:	ee 0f       	add	r30, r30
    11c0:	ff 1f       	adc	r31, r31
    11c2:	e3 50       	subi	r30, 0x03	; 3
    11c4:	ff 4f       	sbci	r31, 0xFF	; 255
    11c6:	80 83       	st	Z, r24
    11c8:	33 c0       	rjmp	.+102    	; 0x1230 <btn_down_handler+0x114>
    11ca:	e0 91 b4 00 	lds	r30, 0x00B4
    11ce:	f0 e0       	ldi	r31, 0x00	; 0
    11d0:	df 01       	movw	r26, r30
    11d2:	aa 0f       	add	r26, r26
    11d4:	bb 1f       	adc	r27, r27
    11d6:	aa 0f       	add	r26, r26
    11d8:	bb 1f       	adc	r27, r27
    11da:	a3 50       	subi	r26, 0x03	; 3
    11dc:	bf 4f       	sbci	r27, 0xFF	; 255
    11de:	11 96       	adiw	r26, 0x01	; 1
    11e0:	8c 91       	ld	r24, X
    11e2:	11 97       	sbiw	r26, 0x01	; 1
    11e4:	88 23       	and	r24, r24
    11e6:	11 f0       	breq	.+4      	; 0x11ec <btn_down_handler+0xd0>
    11e8:	81 50       	subi	r24, 0x01	; 1
    11ea:	01 c0       	rjmp	.+2      	; 0x11ee <btn_down_handler+0xd2>
    11ec:	82 e0       	ldi	r24, 0x02	; 2
    11ee:	ee 0f       	add	r30, r30
    11f0:	ff 1f       	adc	r31, r31
    11f2:	ee 0f       	add	r30, r30
    11f4:	ff 1f       	adc	r31, r31
    11f6:	e3 50       	subi	r30, 0x03	; 3
    11f8:	ff 4f       	sbci	r31, 0xFF	; 255
    11fa:	81 83       	std	Z+1, r24	; 0x01
    11fc:	19 c0       	rjmp	.+50     	; 0x1230 <btn_down_handler+0x114>
    11fe:	e0 91 b4 00 	lds	r30, 0x00B4
    1202:	f0 e0       	ldi	r31, 0x00	; 0
    1204:	df 01       	movw	r26, r30
    1206:	aa 0f       	add	r26, r26
    1208:	bb 1f       	adc	r27, r27
    120a:	aa 0f       	add	r26, r26
    120c:	bb 1f       	adc	r27, r27
    120e:	a3 50       	subi	r26, 0x03	; 3
    1210:	bf 4f       	sbci	r27, 0xFF	; 255
    1212:	12 96       	adiw	r26, 0x02	; 2
    1214:	8c 91       	ld	r24, X
    1216:	12 97       	sbiw	r26, 0x02	; 2
    1218:	8a 30       	cpi	r24, 0x0A	; 10
    121a:	11 f0       	breq	.+4      	; 0x1220 <btn_down_handler+0x104>
    121c:	81 50       	subi	r24, 0x01	; 1
    121e:	01 c0       	rjmp	.+2      	; 0x1222 <btn_down_handler+0x106>
    1220:	8a e5       	ldi	r24, 0x5A	; 90
    1222:	ee 0f       	add	r30, r30
    1224:	ff 1f       	adc	r31, r31
    1226:	ee 0f       	add	r30, r30
    1228:	ff 1f       	adc	r31, r31
    122a:	e3 50       	subi	r30, 0x03	; 3
    122c:	ff 4f       	sbci	r31, 0xFF	; 255
    122e:	82 83       	std	Z+2, r24	; 0x02
    1230:	0e 94 a4 00 	call	0x148	; 0x148 <redraw_query_led>
    1234:	08 95       	ret
    1236:	84 30       	cpi	r24, 0x04	; 4
    1238:	19 f4       	brne	.+6      	; 0x1240 <btn_down_handler+0x124>
    123a:	10 92 60 00 	sts	0x0060, r1
    123e:	04 c0       	rjmp	.+8      	; 0x1248 <btn_down_handler+0x12c>
    1240:	98 2f       	mov	r25, r24
    1242:	9f 5f       	subi	r25, 0xFF	; 255
    1244:	90 93 60 00 	sts	0x0060, r25
    1248:	10 92 9b 00 	sts	0x009B, r1
    124c:	10 92 9a 00 	sts	0x009A, r1
    1250:	20 91 9c 00 	lds	r18, 0x009C
    1254:	30 91 9d 00 	lds	r19, 0x009D
    1258:	21 15       	cp	r18, r1
    125a:	31 05       	cpc	r19, r1
    125c:	31 f0       	breq	.+12     	; 0x126a <btn_down_handler+0x14e>
    125e:	60 91 60 00 	lds	r22, 0x0060
    1262:	90 e0       	ldi	r25, 0x00	; 0
    1264:	70 e0       	ldi	r23, 0x00	; 0
    1266:	0e 94 49 00 	call	0x92	; 0x92 <change_temp_order>
    126a:	08 95       	ret

0000126c <checkQuery_0>:
    126c:	e0 91 fd 00 	lds	r30, 0x00FD
    1270:	f0 e0       	ldi	r31, 0x00	; 0
    1272:	ee 0f       	add	r30, r30
    1274:	ff 1f       	adc	r31, r31
    1276:	ee 57       	subi	r30, 0x7E	; 126
    1278:	ff 4f       	sbci	r31, 0xFF	; 255
    127a:	80 81       	ld	r24, Z
    127c:	91 81       	ldd	r25, Z+1	; 0x01
    127e:	20 91 fe 00 	lds	r18, 0x00FE
    1282:	21 30       	cpi	r18, 0x01	; 1
    1284:	19 f0       	breq	.+6      	; 0x128c <checkQuery_0+0x20>
    1286:	22 30       	cpi	r18, 0x02	; 2
    1288:	c9 f5       	brne	.+114    	; 0x12fc <checkQuery_0+0x90>
    128a:	16 c0       	rjmp	.+44     	; 0x12b8 <checkQuery_0+0x4c>
    128c:	40 91 ff 00 	lds	r20, 0x00FF
    1290:	50 e0       	ldi	r21, 0x00	; 0
    1292:	26 ef       	ldi	r18, 0xF6	; 246
    1294:	3f ef       	ldi	r19, 0xFF	; 255
    1296:	42 9f       	mul	r20, r18
    1298:	b0 01       	movw	r22, r0
    129a:	43 9f       	mul	r20, r19
    129c:	70 0d       	add	r23, r0
    129e:	52 9f       	mul	r21, r18
    12a0:	70 0d       	add	r23, r0
    12a2:	11 24       	eor	r1, r1
    12a4:	68 0f       	add	r22, r24
    12a6:	79 1f       	adc	r23, r25
    12a8:	77 fd       	sbrc	r23, 7
    12aa:	19 c0       	rjmp	.+50     	; 0x12de <checkQuery_0+0x72>
    12ac:	63 33       	cpi	r22, 0x33	; 51
    12ae:	71 05       	cpc	r23, r1
    12b0:	e4 f4       	brge	.+56     	; 0x12ea <checkQuery_0+0x7e>
    12b2:	66 0f       	add	r22, r22
    12b4:	80 e0       	ldi	r24, 0x00	; 0
    12b6:	1b c0       	rjmp	.+54     	; 0x12ee <checkQuery_0+0x82>
    12b8:	40 91 ff 00 	lds	r20, 0x00FF
    12bc:	50 e0       	ldi	r21, 0x00	; 0
    12be:	26 ef       	ldi	r18, 0xF6	; 246
    12c0:	3f ef       	ldi	r19, 0xFF	; 255
    12c2:	42 9f       	mul	r20, r18
    12c4:	b0 01       	movw	r22, r0
    12c6:	43 9f       	mul	r20, r19
    12c8:	70 0d       	add	r23, r0
    12ca:	52 9f       	mul	r21, r18
    12cc:	70 0d       	add	r23, r0
    12ce:	11 24       	eor	r1, r1
    12d0:	68 0f       	add	r22, r24
    12d2:	79 1f       	adc	r23, r25
    12d4:	70 95       	com	r23
    12d6:	61 95       	neg	r22
    12d8:	7f 4f       	sbci	r23, 0xFF	; 255
    12da:	77 ff       	sbrs	r23, 7
    12dc:	03 c0       	rjmp	.+6      	; 0x12e4 <checkQuery_0+0x78>
    12de:	80 e0       	ldi	r24, 0x00	; 0
    12e0:	60 e0       	ldi	r22, 0x00	; 0
    12e2:	05 c0       	rjmp	.+10     	; 0x12ee <checkQuery_0+0x82>
    12e4:	63 33       	cpi	r22, 0x33	; 51
    12e6:	71 05       	cpc	r23, r1
    12e8:	2c f0       	brlt	.+10     	; 0x12f4 <checkQuery_0+0x88>
    12ea:	80 e0       	ldi	r24, 0x00	; 0
    12ec:	64 e6       	ldi	r22, 0x64	; 100
    12ee:	0e 94 2d 01 	call	0x25a	; 0x25a <setReleValue>
    12f2:	08 95       	ret
    12f4:	66 0f       	add	r22, r22
    12f6:	80 e0       	ldi	r24, 0x00	; 0
    12f8:	0e 94 2d 01 	call	0x25a	; 0x25a <setReleValue>
    12fc:	08 95       	ret

000012fe <checkQuery>:
    12fe:	8f 92       	push	r8
    1300:	9f 92       	push	r9
    1302:	af 92       	push	r10
    1304:	bf 92       	push	r11
    1306:	df 92       	push	r13
    1308:	ef 92       	push	r14
    130a:	ff 92       	push	r15
    130c:	0f 93       	push	r16
    130e:	1f 93       	push	r17
    1310:	cf 93       	push	r28
    1312:	df 93       	push	r29
    1314:	0e 94 36 09 	call	0x126c	; 0x126c <checkQuery_0>
    1318:	c1 e0       	ldi	r28, 0x01	; 1
    131a:	d1 e0       	ldi	r29, 0x01	; 1
    131c:	11 e0       	ldi	r17, 0x01	; 1
    131e:	7a e0       	ldi	r23, 0x0A	; 10
    1320:	87 2e       	mov	r8, r23
    1322:	91 2c       	mov	r9, r1
    1324:	e8 81       	ld	r30, Y
    1326:	f0 e0       	ldi	r31, 0x00	; 0
    1328:	ee 0f       	add	r30, r30
    132a:	ff 1f       	adc	r31, r31
    132c:	ee 57       	subi	r30, 0x7E	; 126
    132e:	ff 4f       	sbci	r31, 0xFF	; 255
    1330:	80 81       	ld	r24, Z
    1332:	91 81       	ldd	r25, Z+1	; 0x01
    1334:	b4 01       	movw	r22, r8
    1336:	0e 94 7d 0c 	call	0x18fa	; 0x18fa <__divmodhi4>
    133a:	88 27       	eor	r24, r24
    133c:	77 fd       	sbrc	r23, 7
    133e:	80 95       	com	r24
    1340:	98 2f       	mov	r25, r24
    1342:	0e 94 1a 0b 	call	0x1634	; 0x1634 <__floatsisf>
    1346:	06 2f       	mov	r16, r22
    1348:	f7 2e       	mov	r15, r23
    134a:	e8 2e       	mov	r14, r24
    134c:	d9 2e       	mov	r13, r25
    134e:	20 e0       	ldi	r18, 0x00	; 0
    1350:	30 e0       	ldi	r19, 0x00	; 0
    1352:	a9 01       	movw	r20, r18
    1354:	0e 94 e2 0b 	call	0x17c4	; 0x17c4 <__gesf2>
    1358:	18 16       	cp	r1, r24
    135a:	0c f0       	brlt	.+2      	; 0x135e <checkQuery+0x60>
    135c:	5b c0       	rjmp	.+182    	; 0x1414 <checkQuery+0x116>
    135e:	89 81       	ldd	r24, Y+1	; 0x01
    1360:	81 30       	cpi	r24, 0x01	; 1
    1362:	21 f0       	breq	.+8      	; 0x136c <checkQuery+0x6e>
    1364:	82 30       	cpi	r24, 0x02	; 2
    1366:	09 f0       	breq	.+2      	; 0x136a <checkQuery+0x6c>
    1368:	55 c0       	rjmp	.+170    	; 0x1414 <checkQuery+0x116>
    136a:	27 c0       	rjmp	.+78     	; 0x13ba <checkQuery+0xbc>
    136c:	aa 80       	ldd	r10, Y+2	; 0x02
    136e:	bb 24       	eor	r11, r11
    1370:	b5 01       	movw	r22, r10
    1372:	88 27       	eor	r24, r24
    1374:	77 fd       	sbrc	r23, 7
    1376:	80 95       	com	r24
    1378:	98 2f       	mov	r25, r24
    137a:	0e 94 1a 0b 	call	0x1634	; 0x1634 <__floatsisf>
    137e:	9b 01       	movw	r18, r22
    1380:	ac 01       	movw	r20, r24
    1382:	60 2f       	mov	r22, r16
    1384:	7f 2d       	mov	r23, r15
    1386:	8e 2d       	mov	r24, r14
    1388:	9d 2d       	mov	r25, r13
    138a:	0e 94 e2 0b 	call	0x17c4	; 0x17c4 <__gesf2>
    138e:	87 ff       	sbrs	r24, 7
    1390:	27 c0       	rjmp	.+78     	; 0x13e0 <checkQuery+0xe2>
    1392:	b5 01       	movw	r22, r10
    1394:	62 50       	subi	r22, 0x02	; 2
    1396:	70 40       	sbci	r23, 0x00	; 0
    1398:	88 27       	eor	r24, r24
    139a:	77 fd       	sbrc	r23, 7
    139c:	80 95       	com	r24
    139e:	98 2f       	mov	r25, r24
    13a0:	0e 94 1a 0b 	call	0x1634	; 0x1634 <__floatsisf>
    13a4:	9b 01       	movw	r18, r22
    13a6:	ac 01       	movw	r20, r24
    13a8:	60 2f       	mov	r22, r16
    13aa:	7f 2d       	mov	r23, r15
    13ac:	8e 2d       	mov	r24, r14
    13ae:	9d 2d       	mov	r25, r13
    13b0:	0e 94 e3 0a 	call	0x15c6	; 0x15c6 <__cmpsf2>
    13b4:	87 ff       	sbrs	r24, 7
    13b6:	2e c0       	rjmp	.+92     	; 0x1414 <checkQuery+0x116>
    13b8:	29 c0       	rjmp	.+82     	; 0x140c <checkQuery+0x10e>
    13ba:	aa 80       	ldd	r10, Y+2	; 0x02
    13bc:	bb 24       	eor	r11, r11
    13be:	b5 01       	movw	r22, r10
    13c0:	88 27       	eor	r24, r24
    13c2:	77 fd       	sbrc	r23, 7
    13c4:	80 95       	com	r24
    13c6:	98 2f       	mov	r25, r24
    13c8:	0e 94 1a 0b 	call	0x1634	; 0x1634 <__floatsisf>
    13cc:	9b 01       	movw	r18, r22
    13ce:	ac 01       	movw	r20, r24
    13d0:	60 2f       	mov	r22, r16
    13d2:	7f 2d       	mov	r23, r15
    13d4:	8e 2d       	mov	r24, r14
    13d6:	9d 2d       	mov	r25, r13
    13d8:	0e 94 e3 0a 	call	0x15c6	; 0x15c6 <__cmpsf2>
    13dc:	18 16       	cp	r1, r24
    13de:	1c f0       	brlt	.+6      	; 0x13e6 <checkQuery+0xe8>
    13e0:	81 2f       	mov	r24, r17
    13e2:	61 e0       	ldi	r22, 0x01	; 1
    13e4:	15 c0       	rjmp	.+42     	; 0x1410 <checkQuery+0x112>
    13e6:	b5 01       	movw	r22, r10
    13e8:	6e 5f       	subi	r22, 0xFE	; 254
    13ea:	7f 4f       	sbci	r23, 0xFF	; 255
    13ec:	88 27       	eor	r24, r24
    13ee:	77 fd       	sbrc	r23, 7
    13f0:	80 95       	com	r24
    13f2:	98 2f       	mov	r25, r24
    13f4:	0e 94 1a 0b 	call	0x1634	; 0x1634 <__floatsisf>
    13f8:	9b 01       	movw	r18, r22
    13fa:	ac 01       	movw	r20, r24
    13fc:	60 2f       	mov	r22, r16
    13fe:	7f 2d       	mov	r23, r15
    1400:	8e 2d       	mov	r24, r14
    1402:	9d 2d       	mov	r25, r13
    1404:	0e 94 e2 0b 	call	0x17c4	; 0x17c4 <__gesf2>
    1408:	18 16       	cp	r1, r24
    140a:	24 f4       	brge	.+8      	; 0x1414 <checkQuery+0x116>
    140c:	81 2f       	mov	r24, r17
    140e:	60 e0       	ldi	r22, 0x00	; 0
    1410:	0e 94 2d 01 	call	0x25a	; 0x25a <setReleValue>
    1414:	1f 5f       	subi	r17, 0xFF	; 255
    1416:	24 96       	adiw	r28, 0x04	; 4
    1418:	16 30       	cpi	r17, 0x06	; 6
    141a:	09 f0       	breq	.+2      	; 0x141e <checkQuery+0x120>
    141c:	83 cf       	rjmp	.-250    	; 0x1324 <checkQuery+0x26>
    141e:	df 91       	pop	r29
    1420:	cf 91       	pop	r28
    1422:	1f 91       	pop	r17
    1424:	0f 91       	pop	r16
    1426:	ff 90       	pop	r15
    1428:	ef 90       	pop	r14
    142a:	df 90       	pop	r13
    142c:	bf 90       	pop	r11
    142e:	af 90       	pop	r10
    1430:	9f 90       	pop	r9
    1432:	8f 90       	pop	r8
    1434:	08 95       	ret

00001436 <load_props>:
    1436:	8a eb       	ldi	r24, 0xBA	; 186
    1438:	90 e0       	ldi	r25, 0x00	; 0
    143a:	60 e0       	ldi	r22, 0x00	; 0
    143c:	70 e0       	ldi	r23, 0x00	; 0
    143e:	48 e2       	ldi	r20, 0x28	; 40
    1440:	50 e0       	ldi	r21, 0x00	; 0
    1442:	0e 94 a4 0c 	call	0x1948	; 0x1948 <__eerd_block_m16a>
    1446:	8d ef       	ldi	r24, 0xFD	; 253
    1448:	90 e0       	ldi	r25, 0x00	; 0
    144a:	68 e2       	ldi	r22, 0x28	; 40
    144c:	70 e0       	ldi	r23, 0x00	; 0
    144e:	48 e1       	ldi	r20, 0x18	; 24
    1450:	50 e0       	ldi	r21, 0x00	; 0
    1452:	0e 94 a4 0c 	call	0x1948	; 0x1948 <__eerd_block_m16a>
    1456:	ed ef       	ldi	r30, 0xFD	; 253
    1458:	f0 e0       	ldi	r31, 0x00	; 0
    145a:	8a e0       	ldi	r24, 0x0A	; 10
    145c:	90 81       	ld	r25, Z
    145e:	95 30       	cpi	r25, 0x05	; 5
    1460:	08 f0       	brcs	.+2      	; 0x1464 <load_props+0x2e>
    1462:	10 82       	st	Z, r1
    1464:	91 81       	ldd	r25, Z+1	; 0x01
    1466:	93 30       	cpi	r25, 0x03	; 3
    1468:	08 f0       	brcs	.+2      	; 0x146c <load_props+0x36>
    146a:	11 82       	std	Z+1, r1	; 0x01
    146c:	92 81       	ldd	r25, Z+2	; 0x02
    146e:	9b 35       	cpi	r25, 0x5B	; 91
    1470:	08 f0       	brcs	.+2      	; 0x1474 <load_props+0x3e>
    1472:	82 83       	std	Z+2, r24	; 0x02
    1474:	92 81       	ldd	r25, Z+2	; 0x02
    1476:	9a 30       	cpi	r25, 0x0A	; 10
    1478:	08 f4       	brcc	.+2      	; 0x147c <load_props+0x46>
    147a:	82 83       	std	Z+2, r24	; 0x02
    147c:	34 96       	adiw	r30, 0x04	; 4
    147e:	91 e0       	ldi	r25, 0x01	; 1
    1480:	e5 31       	cpi	r30, 0x15	; 21
    1482:	f9 07       	cpc	r31, r25
    1484:	59 f7       	brne	.-42     	; 0x145c <load_props+0x26>
    1486:	08 95       	ret

00001488 <main>:
    1488:	1f 93       	push	r17
    148a:	cf 93       	push	r28
    148c:	df 93       	push	r29
    148e:	0e 94 1b 0a 	call	0x1436	; 0x1436 <load_props>
    1492:	0e 94 70 01 	call	0x2e0	; 0x2e0 <led_init>
    1496:	0e 94 b3 02 	call	0x566	; 0x566 <sound_init>
    149a:	0e 94 6e 03 	call	0x6dc	; 0x6dc <ow_master_init>
    149e:	0e 94 b8 05 	call	0xb70	; 0xb70 <OW_M_startLoading>
    14a2:	81 e0       	ldi	r24, 0x01	; 1
    14a4:	80 93 8c 00 	sts	0x008C, r24
    14a8:	0e 94 ce 05 	call	0xb9c	; 0xb9c <ow_slave_init>
    14ac:	82 b3       	in	r24, 0x12	; 18
    14ae:	80 67       	ori	r24, 0x70	; 112
    14b0:	82 bb       	out	0x12, r24	; 18
    14b2:	8b e6       	ldi	r24, 0x6B	; 107
    14b4:	83 bf       	out	0x33, r24	; 51
    14b6:	89 b7       	in	r24, 0x39	; 57
    14b8:	81 60       	ori	r24, 0x01	; 1
    14ba:	89 bf       	out	0x39, r24	; 57
    14bc:	bb 9a       	sbi	0x17, 3	; 23
    14be:	8a b3       	in	r24, 0x1a	; 26
    14c0:	83 60       	ori	r24, 0x03	; 3
    14c2:	8a bb       	out	0x1a, r24	; 26
    14c4:	78 94       	sei
    14c6:	82 e0       	ldi	r24, 0x02	; 2
    14c8:	90 e0       	ldi	r25, 0x00	; 0
    14ca:	90 93 a9 00 	sts	0x00A9, r25
    14ce:	80 93 a8 00 	sts	0x00A8, r24
    14d2:	80 91 b6 00 	lds	r24, 0x00B6
    14d6:	84 99       	sbic	0x10, 4	; 16
    14d8:	0a c0       	rjmp	.+20     	; 0x14ee <main+0x66>
    14da:	85 31       	cpi	r24, 0x15	; 21
    14dc:	20 f0       	brcs	.+8      	; 0x14e6 <main+0x5e>
    14de:	81 e0       	ldi	r24, 0x01	; 1
    14e0:	0e 94 65 07 	call	0xeca	; 0xeca <btn_sel_handler>
    14e4:	0e c0       	rjmp	.+28     	; 0x1502 <main+0x7a>
    14e6:	8f 5f       	subi	r24, 0xFF	; 255
    14e8:	80 93 b6 00 	sts	0x00B6, r24
    14ec:	0a c0       	rjmp	.+20     	; 0x1502 <main+0x7a>
    14ee:	81 50       	subi	r24, 0x01	; 1
    14f0:	84 31       	cpi	r24, 0x14	; 20
    14f2:	18 f4       	brcc	.+6      	; 0x14fa <main+0x72>
    14f4:	80 e0       	ldi	r24, 0x00	; 0
    14f6:	0e 94 65 07 	call	0xeca	; 0xeca <btn_sel_handler>
    14fa:	10 92 b6 00 	sts	0x00B6, r1
    14fe:	10 92 b9 00 	sts	0x00B9, r1
    1502:	80 91 b7 00 	lds	r24, 0x00B7
    1506:	85 99       	sbic	0x10, 5	; 16
    1508:	09 c0       	rjmp	.+18     	; 0x151c <main+0x94>
    150a:	86 30       	cpi	r24, 0x06	; 6
    150c:	18 f0       	brcs	.+6      	; 0x1514 <main+0x8c>
    150e:	0e 94 e8 07 	call	0xfd0	; 0xfd0 <btn_up_handler>
    1512:	0b c0       	rjmp	.+22     	; 0x152a <main+0xa2>
    1514:	8f 5f       	subi	r24, 0xFF	; 255
    1516:	80 93 b7 00 	sts	0x00B7, r24
    151a:	07 c0       	rjmp	.+14     	; 0x152a <main+0xa2>
    151c:	81 50       	subi	r24, 0x01	; 1
    151e:	85 30       	cpi	r24, 0x05	; 5
    1520:	10 f4       	brcc	.+4      	; 0x1526 <main+0x9e>
    1522:	0e 94 e8 07 	call	0xfd0	; 0xfd0 <btn_up_handler>
    1526:	10 92 b7 00 	sts	0x00B7, r1
    152a:	80 91 b8 00 	lds	r24, 0x00B8
    152e:	86 99       	sbic	0x10, 6	; 16
    1530:	09 c0       	rjmp	.+18     	; 0x1544 <main+0xbc>
    1532:	86 30       	cpi	r24, 0x06	; 6
    1534:	18 f0       	brcs	.+6      	; 0x153c <main+0xb4>
    1536:	0e 94 8e 08 	call	0x111c	; 0x111c <btn_down_handler>
    153a:	0b c0       	rjmp	.+22     	; 0x1552 <main+0xca>
    153c:	8f 5f       	subi	r24, 0xFF	; 255
    153e:	80 93 b8 00 	sts	0x00B8, r24
    1542:	07 c0       	rjmp	.+14     	; 0x1552 <main+0xca>
    1544:	81 50       	subi	r24, 0x01	; 1
    1546:	85 30       	cpi	r24, 0x05	; 5
    1548:	10 f4       	brcc	.+4      	; 0x154e <main+0xc6>
    154a:	0e 94 8e 08 	call	0x111c	; 0x111c <btn_down_handler>
    154e:	10 92 b8 00 	sts	0x00B8, r1
    1552:	80 91 96 00 	lds	r24, 0x0096
    1556:	88 23       	and	r24, r24
    1558:	11 f0       	breq	.+4      	; 0x155e <main+0xd6>
    155a:	85 31       	cpi	r24, 0x15	; 21
    155c:	79 f4       	brne	.+30     	; 0x157c <main+0xf4>
    155e:	0e 94 39 05 	call	0xa72	; 0xa72 <checkTemp>
    1562:	c2 e8       	ldi	r28, 0x82	; 130
    1564:	d0 e0       	ldi	r29, 0x00	; 0
    1566:	10 e0       	ldi	r17, 0x00	; 0
    1568:	69 91       	ld	r22, Y+
    156a:	79 91       	ld	r23, Y+
    156c:	81 2f       	mov	r24, r17
    156e:	0e 94 41 02 	call	0x482	; 0x482 <write_num>
    1572:	1f 5f       	subi	r17, 0xFF	; 255
    1574:	15 30       	cpi	r17, 0x05	; 5
    1576:	c1 f7       	brne	.-16     	; 0x1568 <main+0xe0>
    1578:	0e 94 44 06 	call	0xc88	; 0xc88 <ow_s_make_outpack>
    157c:	80 91 96 00 	lds	r24, 0x0096
    1580:	88 23       	and	r24, r24
    1582:	11 f4       	brne	.+4      	; 0x1588 <main+0x100>
    1584:	0e 94 7f 09 	call	0x12fe	; 0x12fe <checkQuery>
    1588:	0e 94 05 03 	call	0x60a	; 0x60a <sound_player>
    158c:	8f e7       	ldi	r24, 0x7F	; 127
    158e:	98 e3       	ldi	r25, 0x38	; 56
    1590:	a1 e0       	ldi	r26, 0x01	; 1
    1592:	81 50       	subi	r24, 0x01	; 1
    1594:	90 40       	sbci	r25, 0x00	; 0
    1596:	a0 40       	sbci	r26, 0x00	; 0
    1598:	e1 f7       	brne	.-8      	; 0x1592 <main+0x10a>
    159a:	00 c0       	rjmp	.+0      	; 0x159c <main+0x114>
    159c:	00 00       	nop
    159e:	99 cf       	rjmp	.-206    	; 0x14d2 <main+0x4a>

000015a0 <ceil>:
    15a0:	f3 d0       	rcall	.+486    	; 0x1788 <__fp_trunc>
    15a2:	80 f0       	brcs	.+32     	; 0x15c4 <ceil+0x24>
    15a4:	9f 37       	cpi	r25, 0x7F	; 127
    15a6:	40 f4       	brcc	.+16     	; 0x15b8 <ceil+0x18>
    15a8:	91 11       	cpse	r25, r1
    15aa:	0e f4       	brtc	.+2      	; 0x15ae <ceil+0xe>
    15ac:	05 c1       	rjmp	.+522    	; 0x17b8 <__fp_szero>
    15ae:	60 e0       	ldi	r22, 0x00	; 0
    15b0:	70 e0       	ldi	r23, 0x00	; 0
    15b2:	80 e8       	ldi	r24, 0x80	; 128
    15b4:	9f e3       	ldi	r25, 0x3F	; 63
    15b6:	08 95       	ret
    15b8:	26 f0       	brts	.+8      	; 0x15c2 <ceil+0x22>
    15ba:	1b 16       	cp	r1, r27
    15bc:	61 1d       	adc	r22, r1
    15be:	71 1d       	adc	r23, r1
    15c0:	81 1d       	adc	r24, r1
    15c2:	97 c0       	rjmp	.+302    	; 0x16f2 <__fp_mintl>
    15c4:	b1 c0       	rjmp	.+354    	; 0x1728 <__fp_mpack>

000015c6 <__cmpsf2>:
    15c6:	71 d0       	rcall	.+226    	; 0x16aa <__fp_cmp>
    15c8:	08 f4       	brcc	.+2      	; 0x15cc <__cmpsf2+0x6>
    15ca:	81 e0       	ldi	r24, 0x01	; 1
    15cc:	08 95       	ret

000015ce <__fixsfsi>:
    15ce:	04 d0       	rcall	.+8      	; 0x15d8 <__fixunssfsi>
    15d0:	68 94       	set
    15d2:	b1 11       	cpse	r27, r1
    15d4:	f1 c0       	rjmp	.+482    	; 0x17b8 <__fp_szero>
    15d6:	08 95       	ret

000015d8 <__fixunssfsi>:
    15d8:	bd d0       	rcall	.+378    	; 0x1754 <__fp_splitA>
    15da:	88 f0       	brcs	.+34     	; 0x15fe <__fixunssfsi+0x26>
    15dc:	9f 57       	subi	r25, 0x7F	; 127
    15de:	90 f0       	brcs	.+36     	; 0x1604 <__fixunssfsi+0x2c>
    15e0:	b9 2f       	mov	r27, r25
    15e2:	99 27       	eor	r25, r25
    15e4:	b7 51       	subi	r27, 0x17	; 23
    15e6:	a0 f0       	brcs	.+40     	; 0x1610 <__fixunssfsi+0x38>
    15e8:	d1 f0       	breq	.+52     	; 0x161e <__fixunssfsi+0x46>
    15ea:	66 0f       	add	r22, r22
    15ec:	77 1f       	adc	r23, r23
    15ee:	88 1f       	adc	r24, r24
    15f0:	99 1f       	adc	r25, r25
    15f2:	1a f0       	brmi	.+6      	; 0x15fa <__fixunssfsi+0x22>
    15f4:	ba 95       	dec	r27
    15f6:	c9 f7       	brne	.-14     	; 0x15ea <__fixunssfsi+0x12>
    15f8:	12 c0       	rjmp	.+36     	; 0x161e <__fixunssfsi+0x46>
    15fa:	b1 30       	cpi	r27, 0x01	; 1
    15fc:	81 f0       	breq	.+32     	; 0x161e <__fixunssfsi+0x46>
    15fe:	db d0       	rcall	.+438    	; 0x17b6 <__fp_zero>
    1600:	b1 e0       	ldi	r27, 0x01	; 1
    1602:	08 95       	ret
    1604:	d8 c0       	rjmp	.+432    	; 0x17b6 <__fp_zero>
    1606:	67 2f       	mov	r22, r23
    1608:	78 2f       	mov	r23, r24
    160a:	88 27       	eor	r24, r24
    160c:	b8 5f       	subi	r27, 0xF8	; 248
    160e:	39 f0       	breq	.+14     	; 0x161e <__fixunssfsi+0x46>
    1610:	b9 3f       	cpi	r27, 0xF9	; 249
    1612:	cc f3       	brlt	.-14     	; 0x1606 <__fixunssfsi+0x2e>
    1614:	86 95       	lsr	r24
    1616:	77 95       	ror	r23
    1618:	67 95       	ror	r22
    161a:	b3 95       	inc	r27
    161c:	d9 f7       	brne	.-10     	; 0x1614 <__fixunssfsi+0x3c>
    161e:	3e f4       	brtc	.+14     	; 0x162e <__fixunssfsi+0x56>
    1620:	90 95       	com	r25
    1622:	80 95       	com	r24
    1624:	70 95       	com	r23
    1626:	61 95       	neg	r22
    1628:	7f 4f       	sbci	r23, 0xFF	; 255
    162a:	8f 4f       	sbci	r24, 0xFF	; 255
    162c:	9f 4f       	sbci	r25, 0xFF	; 255
    162e:	08 95       	ret

00001630 <__floatunsisf>:
    1630:	e8 94       	clt
    1632:	09 c0       	rjmp	.+18     	; 0x1646 <__floatsisf+0x12>

00001634 <__floatsisf>:
    1634:	97 fb       	bst	r25, 7
    1636:	3e f4       	brtc	.+14     	; 0x1646 <__floatsisf+0x12>
    1638:	90 95       	com	r25
    163a:	80 95       	com	r24
    163c:	70 95       	com	r23
    163e:	61 95       	neg	r22
    1640:	7f 4f       	sbci	r23, 0xFF	; 255
    1642:	8f 4f       	sbci	r24, 0xFF	; 255
    1644:	9f 4f       	sbci	r25, 0xFF	; 255
    1646:	99 23       	and	r25, r25
    1648:	a9 f0       	breq	.+42     	; 0x1674 <__floatsisf+0x40>
    164a:	f9 2f       	mov	r31, r25
    164c:	96 e9       	ldi	r25, 0x96	; 150
    164e:	bb 27       	eor	r27, r27
    1650:	93 95       	inc	r25
    1652:	f6 95       	lsr	r31
    1654:	87 95       	ror	r24
    1656:	77 95       	ror	r23
    1658:	67 95       	ror	r22
    165a:	b7 95       	ror	r27
    165c:	f1 11       	cpse	r31, r1
    165e:	f8 cf       	rjmp	.-16     	; 0x1650 <__floatsisf+0x1c>
    1660:	fa f4       	brpl	.+62     	; 0x16a0 <__floatsisf+0x6c>
    1662:	bb 0f       	add	r27, r27
    1664:	11 f4       	brne	.+4      	; 0x166a <__floatsisf+0x36>
    1666:	60 ff       	sbrs	r22, 0
    1668:	1b c0       	rjmp	.+54     	; 0x16a0 <__floatsisf+0x6c>
    166a:	6f 5f       	subi	r22, 0xFF	; 255
    166c:	7f 4f       	sbci	r23, 0xFF	; 255
    166e:	8f 4f       	sbci	r24, 0xFF	; 255
    1670:	9f 4f       	sbci	r25, 0xFF	; 255
    1672:	16 c0       	rjmp	.+44     	; 0x16a0 <__floatsisf+0x6c>
    1674:	88 23       	and	r24, r24
    1676:	11 f0       	breq	.+4      	; 0x167c <__floatsisf+0x48>
    1678:	96 e9       	ldi	r25, 0x96	; 150
    167a:	11 c0       	rjmp	.+34     	; 0x169e <__floatsisf+0x6a>
    167c:	77 23       	and	r23, r23
    167e:	21 f0       	breq	.+8      	; 0x1688 <__floatsisf+0x54>
    1680:	9e e8       	ldi	r25, 0x8E	; 142
    1682:	87 2f       	mov	r24, r23
    1684:	76 2f       	mov	r23, r22
    1686:	05 c0       	rjmp	.+10     	; 0x1692 <__floatsisf+0x5e>
    1688:	66 23       	and	r22, r22
    168a:	71 f0       	breq	.+28     	; 0x16a8 <__floatsisf+0x74>
    168c:	96 e8       	ldi	r25, 0x86	; 134
    168e:	86 2f       	mov	r24, r22
    1690:	70 e0       	ldi	r23, 0x00	; 0
    1692:	60 e0       	ldi	r22, 0x00	; 0
    1694:	2a f0       	brmi	.+10     	; 0x16a0 <__floatsisf+0x6c>
    1696:	9a 95       	dec	r25
    1698:	66 0f       	add	r22, r22
    169a:	77 1f       	adc	r23, r23
    169c:	88 1f       	adc	r24, r24
    169e:	da f7       	brpl	.-10     	; 0x1696 <__floatsisf+0x62>
    16a0:	88 0f       	add	r24, r24
    16a2:	96 95       	lsr	r25
    16a4:	87 95       	ror	r24
    16a6:	97 f9       	bld	r25, 7
    16a8:	08 95       	ret

000016aa <__fp_cmp>:
    16aa:	99 0f       	add	r25, r25
    16ac:	00 08       	sbc	r0, r0
    16ae:	55 0f       	add	r21, r21
    16b0:	aa 0b       	sbc	r26, r26
    16b2:	e0 e8       	ldi	r30, 0x80	; 128
    16b4:	fe ef       	ldi	r31, 0xFE	; 254
    16b6:	16 16       	cp	r1, r22
    16b8:	17 06       	cpc	r1, r23
    16ba:	e8 07       	cpc	r30, r24
    16bc:	f9 07       	cpc	r31, r25
    16be:	c0 f0       	brcs	.+48     	; 0x16f0 <__fp_cmp+0x46>
    16c0:	12 16       	cp	r1, r18
    16c2:	13 06       	cpc	r1, r19
    16c4:	e4 07       	cpc	r30, r20
    16c6:	f5 07       	cpc	r31, r21
    16c8:	98 f0       	brcs	.+38     	; 0x16f0 <__fp_cmp+0x46>
    16ca:	62 1b       	sub	r22, r18
    16cc:	73 0b       	sbc	r23, r19
    16ce:	84 0b       	sbc	r24, r20
    16d0:	95 0b       	sbc	r25, r21
    16d2:	39 f4       	brne	.+14     	; 0x16e2 <__fp_cmp+0x38>
    16d4:	0a 26       	eor	r0, r26
    16d6:	61 f0       	breq	.+24     	; 0x16f0 <__fp_cmp+0x46>
    16d8:	23 2b       	or	r18, r19
    16da:	24 2b       	or	r18, r20
    16dc:	25 2b       	or	r18, r21
    16de:	21 f4       	brne	.+8      	; 0x16e8 <__fp_cmp+0x3e>
    16e0:	08 95       	ret
    16e2:	0a 26       	eor	r0, r26
    16e4:	09 f4       	brne	.+2      	; 0x16e8 <__fp_cmp+0x3e>
    16e6:	a1 40       	sbci	r26, 0x01	; 1
    16e8:	a6 95       	lsr	r26
    16ea:	8f ef       	ldi	r24, 0xFF	; 255
    16ec:	81 1d       	adc	r24, r1
    16ee:	81 1d       	adc	r24, r1
    16f0:	08 95       	ret

000016f2 <__fp_mintl>:
    16f2:	88 23       	and	r24, r24
    16f4:	71 f4       	brne	.+28     	; 0x1712 <__fp_mintl+0x20>
    16f6:	77 23       	and	r23, r23
    16f8:	21 f0       	breq	.+8      	; 0x1702 <__fp_mintl+0x10>
    16fa:	98 50       	subi	r25, 0x08	; 8
    16fc:	87 2b       	or	r24, r23
    16fe:	76 2f       	mov	r23, r22
    1700:	07 c0       	rjmp	.+14     	; 0x1710 <__fp_mintl+0x1e>
    1702:	66 23       	and	r22, r22
    1704:	11 f4       	brne	.+4      	; 0x170a <__fp_mintl+0x18>
    1706:	99 27       	eor	r25, r25
    1708:	0d c0       	rjmp	.+26     	; 0x1724 <__fp_mintl+0x32>
    170a:	90 51       	subi	r25, 0x10	; 16
    170c:	86 2b       	or	r24, r22
    170e:	70 e0       	ldi	r23, 0x00	; 0
    1710:	60 e0       	ldi	r22, 0x00	; 0
    1712:	2a f0       	brmi	.+10     	; 0x171e <__fp_mintl+0x2c>
    1714:	9a 95       	dec	r25
    1716:	66 0f       	add	r22, r22
    1718:	77 1f       	adc	r23, r23
    171a:	88 1f       	adc	r24, r24
    171c:	da f7       	brpl	.-10     	; 0x1714 <__fp_mintl+0x22>
    171e:	88 0f       	add	r24, r24
    1720:	96 95       	lsr	r25
    1722:	87 95       	ror	r24
    1724:	97 f9       	bld	r25, 7
    1726:	08 95       	ret

00001728 <__fp_mpack>:
    1728:	9f 3f       	cpi	r25, 0xFF	; 255
    172a:	31 f0       	breq	.+12     	; 0x1738 <__fp_mpack_finite+0xc>

0000172c <__fp_mpack_finite>:
    172c:	91 50       	subi	r25, 0x01	; 1
    172e:	20 f4       	brcc	.+8      	; 0x1738 <__fp_mpack_finite+0xc>
    1730:	87 95       	ror	r24
    1732:	77 95       	ror	r23
    1734:	67 95       	ror	r22
    1736:	b7 95       	ror	r27
    1738:	88 0f       	add	r24, r24
    173a:	91 1d       	adc	r25, r1
    173c:	96 95       	lsr	r25
    173e:	87 95       	ror	r24
    1740:	97 f9       	bld	r25, 7
    1742:	08 95       	ret

00001744 <__fp_split3>:
    1744:	57 fd       	sbrc	r21, 7
    1746:	90 58       	subi	r25, 0x80	; 128
    1748:	44 0f       	add	r20, r20
    174a:	55 1f       	adc	r21, r21
    174c:	59 f0       	breq	.+22     	; 0x1764 <__fp_splitA+0x10>
    174e:	5f 3f       	cpi	r21, 0xFF	; 255
    1750:	71 f0       	breq	.+28     	; 0x176e <__fp_splitA+0x1a>
    1752:	47 95       	ror	r20

00001754 <__fp_splitA>:
    1754:	88 0f       	add	r24, r24
    1756:	97 fb       	bst	r25, 7
    1758:	99 1f       	adc	r25, r25
    175a:	61 f0       	breq	.+24     	; 0x1774 <__fp_splitA+0x20>
    175c:	9f 3f       	cpi	r25, 0xFF	; 255
    175e:	79 f0       	breq	.+30     	; 0x177e <__fp_splitA+0x2a>
    1760:	87 95       	ror	r24
    1762:	08 95       	ret
    1764:	12 16       	cp	r1, r18
    1766:	13 06       	cpc	r1, r19
    1768:	14 06       	cpc	r1, r20
    176a:	55 1f       	adc	r21, r21
    176c:	f2 cf       	rjmp	.-28     	; 0x1752 <__fp_split3+0xe>
    176e:	46 95       	lsr	r20
    1770:	f1 df       	rcall	.-30     	; 0x1754 <__fp_splitA>
    1772:	08 c0       	rjmp	.+16     	; 0x1784 <__fp_splitA+0x30>
    1774:	16 16       	cp	r1, r22
    1776:	17 06       	cpc	r1, r23
    1778:	18 06       	cpc	r1, r24
    177a:	99 1f       	adc	r25, r25
    177c:	f1 cf       	rjmp	.-30     	; 0x1760 <__fp_splitA+0xc>
    177e:	86 95       	lsr	r24
    1780:	71 05       	cpc	r23, r1
    1782:	61 05       	cpc	r22, r1
    1784:	08 94       	sec
    1786:	08 95       	ret

00001788 <__fp_trunc>:
    1788:	e5 df       	rcall	.-54     	; 0x1754 <__fp_splitA>
    178a:	a0 f0       	brcs	.+40     	; 0x17b4 <__fp_trunc+0x2c>
    178c:	be e7       	ldi	r27, 0x7E	; 126
    178e:	b9 17       	cp	r27, r25
    1790:	88 f4       	brcc	.+34     	; 0x17b4 <__fp_trunc+0x2c>
    1792:	bb 27       	eor	r27, r27
    1794:	9f 38       	cpi	r25, 0x8F	; 143
    1796:	60 f4       	brcc	.+24     	; 0x17b0 <__fp_trunc+0x28>
    1798:	16 16       	cp	r1, r22
    179a:	b1 1d       	adc	r27, r1
    179c:	67 2f       	mov	r22, r23
    179e:	78 2f       	mov	r23, r24
    17a0:	88 27       	eor	r24, r24
    17a2:	98 5f       	subi	r25, 0xF8	; 248
    17a4:	f7 cf       	rjmp	.-18     	; 0x1794 <__fp_trunc+0xc>
    17a6:	86 95       	lsr	r24
    17a8:	77 95       	ror	r23
    17aa:	67 95       	ror	r22
    17ac:	b1 1d       	adc	r27, r1
    17ae:	93 95       	inc	r25
    17b0:	96 39       	cpi	r25, 0x96	; 150
    17b2:	c8 f3       	brcs	.-14     	; 0x17a6 <__fp_trunc+0x1e>
    17b4:	08 95       	ret

000017b6 <__fp_zero>:
    17b6:	e8 94       	clt

000017b8 <__fp_szero>:
    17b8:	bb 27       	eor	r27, r27
    17ba:	66 27       	eor	r22, r22
    17bc:	77 27       	eor	r23, r23
    17be:	cb 01       	movw	r24, r22
    17c0:	97 f9       	bld	r25, 7
    17c2:	08 95       	ret

000017c4 <__gesf2>:
    17c4:	72 df       	rcall	.-284    	; 0x16aa <__fp_cmp>
    17c6:	08 f4       	brcc	.+2      	; 0x17ca <__gesf2+0x6>
    17c8:	8f ef       	ldi	r24, 0xFF	; 255
    17ca:	08 95       	ret

000017cc <__mulsf3>:
    17cc:	0b d0       	rcall	.+22     	; 0x17e4 <__mulsf3x>
    17ce:	78 c0       	rjmp	.+240    	; 0x18c0 <__fp_round>
    17d0:	69 d0       	rcall	.+210    	; 0x18a4 <__fp_pscA>
    17d2:	28 f0       	brcs	.+10     	; 0x17de <__mulsf3+0x12>
    17d4:	6e d0       	rcall	.+220    	; 0x18b2 <__fp_pscB>
    17d6:	18 f0       	brcs	.+6      	; 0x17de <__mulsf3+0x12>
    17d8:	95 23       	and	r25, r21
    17da:	09 f0       	breq	.+2      	; 0x17de <__mulsf3+0x12>
    17dc:	5a c0       	rjmp	.+180    	; 0x1892 <__fp_inf>
    17de:	5f c0       	rjmp	.+190    	; 0x189e <__fp_nan>
    17e0:	11 24       	eor	r1, r1
    17e2:	ea cf       	rjmp	.-44     	; 0x17b8 <__fp_szero>

000017e4 <__mulsf3x>:
    17e4:	af df       	rcall	.-162    	; 0x1744 <__fp_split3>
    17e6:	a0 f3       	brcs	.-24     	; 0x17d0 <__mulsf3+0x4>

000017e8 <__mulsf3_pse>:
    17e8:	95 9f       	mul	r25, r21
    17ea:	d1 f3       	breq	.-12     	; 0x17e0 <__mulsf3+0x14>
    17ec:	95 0f       	add	r25, r21
    17ee:	50 e0       	ldi	r21, 0x00	; 0
    17f0:	55 1f       	adc	r21, r21
    17f2:	62 9f       	mul	r22, r18
    17f4:	f0 01       	movw	r30, r0
    17f6:	72 9f       	mul	r23, r18
    17f8:	bb 27       	eor	r27, r27
    17fa:	f0 0d       	add	r31, r0
    17fc:	b1 1d       	adc	r27, r1
    17fe:	63 9f       	mul	r22, r19
    1800:	aa 27       	eor	r26, r26
    1802:	f0 0d       	add	r31, r0
    1804:	b1 1d       	adc	r27, r1
    1806:	aa 1f       	adc	r26, r26
    1808:	64 9f       	mul	r22, r20
    180a:	66 27       	eor	r22, r22
    180c:	b0 0d       	add	r27, r0
    180e:	a1 1d       	adc	r26, r1
    1810:	66 1f       	adc	r22, r22
    1812:	82 9f       	mul	r24, r18
    1814:	22 27       	eor	r18, r18
    1816:	b0 0d       	add	r27, r0
    1818:	a1 1d       	adc	r26, r1
    181a:	62 1f       	adc	r22, r18
    181c:	73 9f       	mul	r23, r19
    181e:	b0 0d       	add	r27, r0
    1820:	a1 1d       	adc	r26, r1
    1822:	62 1f       	adc	r22, r18
    1824:	83 9f       	mul	r24, r19
    1826:	a0 0d       	add	r26, r0
    1828:	61 1d       	adc	r22, r1
    182a:	22 1f       	adc	r18, r18
    182c:	74 9f       	mul	r23, r20
    182e:	33 27       	eor	r19, r19
    1830:	a0 0d       	add	r26, r0
    1832:	61 1d       	adc	r22, r1
    1834:	23 1f       	adc	r18, r19
    1836:	84 9f       	mul	r24, r20
    1838:	60 0d       	add	r22, r0
    183a:	21 1d       	adc	r18, r1
    183c:	82 2f       	mov	r24, r18
    183e:	76 2f       	mov	r23, r22
    1840:	6a 2f       	mov	r22, r26
    1842:	11 24       	eor	r1, r1
    1844:	9f 57       	subi	r25, 0x7F	; 127
    1846:	50 40       	sbci	r21, 0x00	; 0
    1848:	8a f0       	brmi	.+34     	; 0x186c <__mulsf3_pse+0x84>
    184a:	e1 f0       	breq	.+56     	; 0x1884 <__mulsf3_pse+0x9c>
    184c:	88 23       	and	r24, r24
    184e:	4a f0       	brmi	.+18     	; 0x1862 <__mulsf3_pse+0x7a>
    1850:	ee 0f       	add	r30, r30
    1852:	ff 1f       	adc	r31, r31
    1854:	bb 1f       	adc	r27, r27
    1856:	66 1f       	adc	r22, r22
    1858:	77 1f       	adc	r23, r23
    185a:	88 1f       	adc	r24, r24
    185c:	91 50       	subi	r25, 0x01	; 1
    185e:	50 40       	sbci	r21, 0x00	; 0
    1860:	a9 f7       	brne	.-22     	; 0x184c <__mulsf3_pse+0x64>
    1862:	9e 3f       	cpi	r25, 0xFE	; 254
    1864:	51 05       	cpc	r21, r1
    1866:	70 f0       	brcs	.+28     	; 0x1884 <__mulsf3_pse+0x9c>
    1868:	14 c0       	rjmp	.+40     	; 0x1892 <__fp_inf>
    186a:	a6 cf       	rjmp	.-180    	; 0x17b8 <__fp_szero>
    186c:	5f 3f       	cpi	r21, 0xFF	; 255
    186e:	ec f3       	brlt	.-6      	; 0x186a <__mulsf3_pse+0x82>
    1870:	98 3e       	cpi	r25, 0xE8	; 232
    1872:	dc f3       	brlt	.-10     	; 0x186a <__mulsf3_pse+0x82>
    1874:	86 95       	lsr	r24
    1876:	77 95       	ror	r23
    1878:	67 95       	ror	r22
    187a:	b7 95       	ror	r27
    187c:	f7 95       	ror	r31
    187e:	e7 95       	ror	r30
    1880:	9f 5f       	subi	r25, 0xFF	; 255
    1882:	c1 f7       	brne	.-16     	; 0x1874 <__mulsf3_pse+0x8c>
    1884:	fe 2b       	or	r31, r30
    1886:	88 0f       	add	r24, r24
    1888:	91 1d       	adc	r25, r1
    188a:	96 95       	lsr	r25
    188c:	87 95       	ror	r24
    188e:	97 f9       	bld	r25, 7
    1890:	08 95       	ret

00001892 <__fp_inf>:
    1892:	97 f9       	bld	r25, 7
    1894:	9f 67       	ori	r25, 0x7F	; 127
    1896:	80 e8       	ldi	r24, 0x80	; 128
    1898:	70 e0       	ldi	r23, 0x00	; 0
    189a:	60 e0       	ldi	r22, 0x00	; 0
    189c:	08 95       	ret

0000189e <__fp_nan>:
    189e:	9f ef       	ldi	r25, 0xFF	; 255
    18a0:	80 ec       	ldi	r24, 0xC0	; 192
    18a2:	08 95       	ret

000018a4 <__fp_pscA>:
    18a4:	00 24       	eor	r0, r0
    18a6:	0a 94       	dec	r0
    18a8:	16 16       	cp	r1, r22
    18aa:	17 06       	cpc	r1, r23
    18ac:	18 06       	cpc	r1, r24
    18ae:	09 06       	cpc	r0, r25
    18b0:	08 95       	ret

000018b2 <__fp_pscB>:
    18b2:	00 24       	eor	r0, r0
    18b4:	0a 94       	dec	r0
    18b6:	12 16       	cp	r1, r18
    18b8:	13 06       	cpc	r1, r19
    18ba:	14 06       	cpc	r1, r20
    18bc:	05 06       	cpc	r0, r21
    18be:	08 95       	ret

000018c0 <__fp_round>:
    18c0:	09 2e       	mov	r0, r25
    18c2:	03 94       	inc	r0
    18c4:	00 0c       	add	r0, r0
    18c6:	11 f4       	brne	.+4      	; 0x18cc <__fp_round+0xc>
    18c8:	88 23       	and	r24, r24
    18ca:	52 f0       	brmi	.+20     	; 0x18e0 <__fp_round+0x20>
    18cc:	bb 0f       	add	r27, r27
    18ce:	40 f4       	brcc	.+16     	; 0x18e0 <__fp_round+0x20>
    18d0:	bf 2b       	or	r27, r31
    18d2:	11 f4       	brne	.+4      	; 0x18d8 <__fp_round+0x18>
    18d4:	60 ff       	sbrs	r22, 0
    18d6:	04 c0       	rjmp	.+8      	; 0x18e0 <__fp_round+0x20>
    18d8:	6f 5f       	subi	r22, 0xFF	; 255
    18da:	7f 4f       	sbci	r23, 0xFF	; 255
    18dc:	8f 4f       	sbci	r24, 0xFF	; 255
    18de:	9f 4f       	sbci	r25, 0xFF	; 255
    18e0:	08 95       	ret

000018e2 <__udivmodqi4>:
    18e2:	99 1b       	sub	r25, r25
    18e4:	79 e0       	ldi	r23, 0x09	; 9
    18e6:	04 c0       	rjmp	.+8      	; 0x18f0 <__udivmodqi4_ep>

000018e8 <__udivmodqi4_loop>:
    18e8:	99 1f       	adc	r25, r25
    18ea:	96 17       	cp	r25, r22
    18ec:	08 f0       	brcs	.+2      	; 0x18f0 <__udivmodqi4_ep>
    18ee:	96 1b       	sub	r25, r22

000018f0 <__udivmodqi4_ep>:
    18f0:	88 1f       	adc	r24, r24
    18f2:	7a 95       	dec	r23
    18f4:	c9 f7       	brne	.-14     	; 0x18e8 <__udivmodqi4_loop>
    18f6:	80 95       	com	r24
    18f8:	08 95       	ret

000018fa <__divmodhi4>:
    18fa:	97 fb       	bst	r25, 7
    18fc:	09 2e       	mov	r0, r25
    18fe:	07 26       	eor	r0, r23
    1900:	0a d0       	rcall	.+20     	; 0x1916 <__divmodhi4_neg1>
    1902:	77 fd       	sbrc	r23, 7
    1904:	04 d0       	rcall	.+8      	; 0x190e <__divmodhi4_neg2>
    1906:	0c d0       	rcall	.+24     	; 0x1920 <__udivmodhi4>
    1908:	06 d0       	rcall	.+12     	; 0x1916 <__divmodhi4_neg1>
    190a:	00 20       	and	r0, r0
    190c:	1a f4       	brpl	.+6      	; 0x1914 <__divmodhi4_exit>

0000190e <__divmodhi4_neg2>:
    190e:	70 95       	com	r23
    1910:	61 95       	neg	r22
    1912:	7f 4f       	sbci	r23, 0xFF	; 255

00001914 <__divmodhi4_exit>:
    1914:	08 95       	ret

00001916 <__divmodhi4_neg1>:
    1916:	f6 f7       	brtc	.-4      	; 0x1914 <__divmodhi4_exit>
    1918:	90 95       	com	r25
    191a:	81 95       	neg	r24
    191c:	9f 4f       	sbci	r25, 0xFF	; 255
    191e:	08 95       	ret

00001920 <__udivmodhi4>:
    1920:	aa 1b       	sub	r26, r26
    1922:	bb 1b       	sub	r27, r27
    1924:	51 e1       	ldi	r21, 0x11	; 17
    1926:	07 c0       	rjmp	.+14     	; 0x1936 <__udivmodhi4_ep>

00001928 <__udivmodhi4_loop>:
    1928:	aa 1f       	adc	r26, r26
    192a:	bb 1f       	adc	r27, r27
    192c:	a6 17       	cp	r26, r22
    192e:	b7 07       	cpc	r27, r23
    1930:	10 f0       	brcs	.+4      	; 0x1936 <__udivmodhi4_ep>
    1932:	a6 1b       	sub	r26, r22
    1934:	b7 0b       	sbc	r27, r23

00001936 <__udivmodhi4_ep>:
    1936:	88 1f       	adc	r24, r24
    1938:	99 1f       	adc	r25, r25
    193a:	5a 95       	dec	r21
    193c:	a9 f7       	brne	.-22     	; 0x1928 <__udivmodhi4_loop>
    193e:	80 95       	com	r24
    1940:	90 95       	com	r25
    1942:	bc 01       	movw	r22, r24
    1944:	cd 01       	movw	r24, r26
    1946:	08 95       	ret

00001948 <__eerd_block_m16a>:
    1948:	dc 01       	movw	r26, r24
    194a:	cb 01       	movw	r24, r22

0000194c <__eerd_blraw_m16a>:
    194c:	fc 01       	movw	r30, r24
    194e:	e1 99       	sbic	0x1c, 1	; 28
    1950:	fe cf       	rjmp	.-4      	; 0x194e <__eerd_blraw_m16a+0x2>
    1952:	06 c0       	rjmp	.+12     	; 0x1960 <__eerd_blraw_m16a+0x14>
    1954:	ff bb       	out	0x1f, r31	; 31
    1956:	ee bb       	out	0x1e, r30	; 30
    1958:	e0 9a       	sbi	0x1c, 0	; 28
    195a:	31 96       	adiw	r30, 0x01	; 1
    195c:	0d b2       	in	r0, 0x1d	; 29
    195e:	0d 92       	st	X+, r0
    1960:	41 50       	subi	r20, 0x01	; 1
    1962:	50 40       	sbci	r21, 0x00	; 0
    1964:	b8 f7       	brcc	.-18     	; 0x1954 <__eerd_blraw_m16a+0x8>
    1966:	08 95       	ret

00001968 <__eeupd_block_m16a>:
    1968:	dc 01       	movw	r26, r24
    196a:	a4 0f       	add	r26, r20
    196c:	b5 1f       	adc	r27, r21
    196e:	41 50       	subi	r20, 0x01	; 1
    1970:	50 40       	sbci	r21, 0x00	; 0
    1972:	48 f0       	brcs	.+18     	; 0x1986 <__eeupd_block_m16a+0x1e>
    1974:	cb 01       	movw	r24, r22
    1976:	84 0f       	add	r24, r20
    1978:	95 1f       	adc	r25, r21
    197a:	2e 91       	ld	r18, -X
    197c:	0e 94 c5 0c 	call	0x198a	; 0x198a <__eeupd_r18_m16a>
    1980:	41 50       	subi	r20, 0x01	; 1
    1982:	50 40       	sbci	r21, 0x00	; 0
    1984:	d0 f7       	brcc	.-12     	; 0x197a <__eeupd_block_m16a+0x12>
    1986:	08 95       	ret

00001988 <__eeupd_byte_m16a>:
    1988:	26 2f       	mov	r18, r22

0000198a <__eeupd_r18_m16a>:
    198a:	e1 99       	sbic	0x1c, 1	; 28
    198c:	fe cf       	rjmp	.-4      	; 0x198a <__eeupd_r18_m16a>
    198e:	9f bb       	out	0x1f, r25	; 31
    1990:	8e bb       	out	0x1e, r24	; 30
    1992:	e0 9a       	sbi	0x1c, 0	; 28
    1994:	01 97       	sbiw	r24, 0x01	; 1
    1996:	0d b2       	in	r0, 0x1d	; 29
    1998:	02 16       	cp	r0, r18
    199a:	31 f0       	breq	.+12     	; 0x19a8 <__eeupd_r18_m16a+0x1e>
    199c:	2d bb       	out	0x1d, r18	; 29
    199e:	0f b6       	in	r0, 0x3f	; 63
    19a0:	f8 94       	cli
    19a2:	e2 9a       	sbi	0x1c, 2	; 28
    19a4:	e1 9a       	sbi	0x1c, 1	; 28
    19a6:	0f be       	out	0x3f, r0	; 63
    19a8:	08 95       	ret

000019aa <_exit>:
    19aa:	f8 94       	cli

000019ac <__stop_program>:
    19ac:	ff cf       	rjmp	.-2      	; 0x19ac <__stop_program>
